(S'Abdomen, Acute'
p0
S'Abdominal Injuries'
p1
S'Abdominal Neoplasms'
p2
S'Abetalipoproteinemia'
p3
S'Congenital Abnormalities'
p4
S'Abnormalities, Drug-Induced'
p5
S'Abnormalities, Multiple'
p6
S'Abnormalities, Radiation-Induced'
p7
S'Abortion, Spontaneous'
p8
S'Abortion, Habitual'
p9
S'Abortion, Incomplete'
p10
S'Abortion, Missed'
p11
S'Abortion, Septic'
p12
S'Abortion, Threatened'
p13
S'Abortion, Veterinary'
p14
S'Abruptio Placentae'
p15
S'Abscess'
p16
S'Peritonsillar Abscess'
p17
S'Acantholysis'
p18
S'Acanthosis Nigricans'
p19
S'Achlorhydria'
p20
S'Achondroplasia'
p21
S'Acid-Base Imbalance'
p22
S'Acidosis'
p23
S'Acidosis, Lactic'
p24
S'Acidosis, Renal Tubular'
p25
S'Acidosis, Respiratory'
p26
S'Acinetobacter Infections'
p27
S'Acne Vulgaris'
p28
S'Acne Keloid'
p29
S'Vestibulocochlear Nerve Diseases'
p30
S'Acquired Immunodeficiency Syndrome'
p31
S'Acrocephalosyndactylia'
p32
S'Acrodermatitis'
p33
S'Acrodynia'
p34
S'Acromegaly'
p35
S'ACTH Syndrome, Ectopic'
p36
S'Actinobacillosis'
p37
S'Actinobacillus Infections'
p38
S'Actinomycetales Infections'
p39
S'Actinomycosis'
p40
S'Actinomycosis, Cervicofacial'
p41
S'Acute Disease'
p42
S'Acute-Phase Reaction'
p43
S'Adams-Stokes Syndrome'
p44
S'Addison Disease'
p45
S'Adenocarcinoma'
p46
S'Adenocarcinoma, Papillary'
p47
S'Adenofibroma'
p48
S'Adenolymphoma'
p49
S'Adenoma'
p50
S'Adenoma, Basophil'
p51
S'Adenoma, Chromophobe'
p52
S'Adenoma, Acidophil'
p53
S'Adenoviridae Infections'
p54
S'Adenovirus Infections, Human'
p55
S'Tissue Adhesions'
p56
S'Adie Syndrome'
p57
S'Adiposis Dolorosa'
p58
S'Adnexal Diseases'
p59
S'Pelvic Inflammatory Disease'
p60
S'Adrenal Cortex Diseases'
p61
S'Adrenal Cortex Neoplasms'
p62
S'Adrenal Gland Diseases'
p63
S'Adrenocortical Hyperfunction'
p64
S'Adrenal Insufficiency'
p65
S'Adrenal Gland Neoplasms'
p66
S'Adrenal Hyperplasia, Congenital'
p67
S'Adrenal Rest Tumor'
p68
S'Adrenoleukodystrophy'
p69
S'Aerophagy'
p70
S'Afferent Loop Syndrome'
p71
S'Afibrinogenemia'
p72
S'African Horse Sickness'
p73
S'African Swine Fever'
p74
S'Agammaglobulinemia'
p75
S'Ageusia'
p76
S'Agnosia'
p77
S'Agranulocytosis'
p78
S'Agraphia'
p79
S"Agricultural Workers\\' Diseases"
p80
S'AIDS-Related Complex'
p81
S'Ainhum'
p82
S'Airway Obstruction'
p83
S'Akinetic Mutism'
p84
S'Albinism'
p85
S'Albuminuria'
p86
S'Alcohol Amnestic Disorder'
p87
S'Alcohol Withdrawal Delirium'
p88
S'Alcoholic Intoxication'
p89
S'Alcoholism'
p90
S'Aleutian Mink Disease'
p91
S'Alkalosis'
p92
S'Alkalosis, Respiratory'
p93
S'Alkaptonuria'
p94
S'Alopecia'
p95
S'Alopecia Areata'
p96
S'Mucinosis, Follicular'
p97
S'Altitude Sickness'
p98
S'Alveolitis, Extrinsic Allergic'
p99
S'Alzheimer Disease'
p100
S'Amblyopia'
p101
S'Amebiasis'
p102
S'Ameloblastoma'
p103
S'Amelogenesis Imperfecta'
p104
S'Amenorrhea'
p105
S'Amino Acid Metabolism, Inborn Errors'
p106
S'Renal Aminoacidurias'
p107
S'Amnesia'
p108
S'Amnesia, Retrograde'
p109
S'Amniotic Band Syndrome'
p110
S'Amputation, Traumatic'
p111
S'Amyloidosis'
p112
S'Amyotrophic Lateral Sclerosis'
p113
S'Anal Gland Neoplasms'
p114
S'Pain Insensitivity, Congenital'
p115
S'Anaphylaxis'
p116
S'Anaplasia'
p117
S'Anaplasmataceae Infections'
p118
S'Anaplasmosis'
p119
S'Ancylostomiasis'
p120
S'Anemia'
p121
S'Anemia, Aplastic'
p122
S'Anemia, Dyserythropoietic, Congenital'
p123
S'Anemia, Hemolytic'
p124
S'Anemia, Hemolytic, Autoimmune'
p125
S'Anemia, Hemolytic, Congenital'
p126
S'Anemia, Hemolytic, Congenital Nonspherocytic'
p127
S'Anemia, Hypochromic'
p128
S'Anemia, Macrocytic'
p129
S'Anemia, Megaloblastic'
p130
S'Anemia, Myelophthisic'
p131
S'Anemia, Neonatal'
p132
S'Anemia, Pernicious'
p133
S'Anemia, Refractory'
p134
S'Anemia, Refractory, with Excess of Blasts'
p135
S'Anemia, Sickle Cell'
p136
S'Anemia, Sideroblastic'
p137
S'Anencephaly'
p138
S'Aneuploidy'
p139
S'Aneurysm'
p140
S'Aneurysm, Dissecting'
p141
S'Aneurysm, Infected'
p142
S'Angina Pectoris'
p143
S'Angina Pectoris, Variant'
p144
S'Angina, Unstable'
p145
S'Angioid Streaks'
p146
S'Angiokeratoma'
p147
S'Fabry Disease'
p148
S'Angiolymphoid Hyperplasia with Eosinophilia'
p149
S'Angiomatosis'
p150
S'Angioedema'
p151
S'Animal Diseases'
p152
S'Aniseikonia'
p153
S'Ankylosis'
p154
S'Anodontia'
p155
S'Anomia'
p156
S'Anophthalmos'
p157
S'Anorexia'
p158
S'Olfaction Disorders'
p159
S'Anovulation'
p160
S'Anoxia'
p161
S'Anterior Compartment Syndrome'
p162
S'Anthracosilicosis'
p163
S'Anthrax'
p164
S'Anuria'
p165
S'Anus Diseases'
p166
S'Anus Neoplasms'
p167
S'Anus, Imperforate'
p168
S'Aortic Aneurysm'
p169
S'Aortic Arch Syndromes'
p170
S'Aortic Coarctation'
p171
S'Aortic Diseases'
p172
S'Aortic Rupture'
p173
S'Aortic Stenosis, Subvalvular'
p174
S'Aortic Valve Insufficiency'
p175
S'Aortic Valve Prolapse'
p176
S'Aortic Valve Stenosis'
p177
S'Aortitis'
p178
S'Aortopulmonary Septal Defect'
p179
S'Aphakia'
p180
S'Aphakia, Postcataract'
p181
S'Aphasia'
p182
S'Aphasia, Broca'
p183
S'Aphasia, Wernicke'
p184
S'Aphonia'
p185
S'Apnea'
p186
S'Appendiceal Neoplasms'
p187
S'Appendicitis'
p188
S'Apraxias'
p189
S'Apudoma'
p190
S'Arachnidism'
p191
S'Arachnoiditis'
p192
S'Arbovirus Infections'
p193
S'Arcus Senilis'
p194
S'Arenaviridae Infections'
p195
S'Argyria'
p196
S'Arm Injuries'
p197
S'Arnold-Chiari Malformation'
p198
S'Arrhythmias, Cardiac'
p199
S'Arrhythmia, Sinus'
p200
S'Arterial Occlusive Diseases'
p201
S'Arterio-Arterial Fistula'
p202
S'Arteriosclerosis'
p203
S'Arteriosclerosis Obliterans'
p204
S'Arteriovenous Fistula'
p205
S'Arteriovenous Malformations'
p206
S'Arteritis'
p207
S'Arthritis'
p208
S'Arthritis, Experimental'
p209
S'Arthritis, Infectious'
p210
S'Arthritis, Juvenile Rheumatoid'
p211
S'Arthritis, Rheumatoid'
p212
S'Arthrogryposis'
p213
S'Arthropathy, Neurogenic'
p214
S'Arthus Reaction'
p215
S'Articulation Disorders'
p216
S'Asbestosis'
p217
S'Ascariasis'
p218
S'Ascaridiasis'
p219
S'Ascites'
p220
S'Ascorbic Acid Deficiency'
p221
S'Aspergillosis'
p222
S'Aspergillosis, Allergic Bronchopulmonary'
p223
S'Asphyxia'
p224
S'Asphyxia Neonatorum'
p225
S'Asthenia'
p226
S'Asthenopia'
p227
S'Asthma'
p228
S'Asthma, Exercise-Induced'
p229
S'Astigmatism'
p230
S'Astrocytoma'
p231
S'Ataxia'
p232
S'Ataxia Telangiectasia'
p233
S'Pulmonary Atelectasis'
p234
S'Athetosis'
p235
S'Athletic Injuries'
p236
S'Atrial Fibrillation'
p237
S'Atrial Flutter'
p238
S'Atrophy'
p239
S'Auditory Diseases, Central'
p240
S'Auditory Perceptual Disorders'
p241
S'Autoimmune Diseases'
p242
S'Autolysis'
p243
S'Autonomic Nervous System Diseases'
p244
S'Avian Leukosis'
p245
S'Sarcoma, Avian'
p246
S'Avitaminosis'
p247
S'Babesiosis'
p248
S'Reflex, Babinski'
p249
S'Back Pain'
p250
S'Bacterial Infections and Mycoses'
p251
S'Bacterial Infections'
p252
S'Bacteriuria'
p253
S'Bacteroides Infections'
p254
S'Balanitis'
p255
S'Balantidiasis'
p256
S'Balkan Nephropathy'
p257
S'Barotrauma'
p258
S'Barrett Esophagus'
p259
S'Bartonella Infections'
p260
S'Bartonellaceae Infections'
p261
S'Bartter Syndrome'
p262
S'Basal Cell Nevus Syndrome'
p263
S'Basal Ganglia Diseases'
p264
S'Beckwith-Wiedemann Syndrome'
p265
S'Behcet Syndrome'
p266
S'Beriberi'
p267
S'Bernard-Soulier Syndrome'
p268
S'Berylliosis'
p269
S'Bezoars'
p270
S'Bile Duct Diseases'
p271
S'Bile Duct Neoplasms'
p272
S'Cholestasis, Extrahepatic'
p273
S'Bile Reflux'
p274
S'Biliary Atresia'
p275
S'Biliary Dyskinesia'
p276
S'Biliary Fistula'
p277
S'Biliary Tract Diseases'
p278
S'Biliary Tract Neoplasms'
p279
S'Bird Diseases'
p280
S"Bird Fancier\\'s Lung"
p281
S'Birth Injuries'
p282
S'Birth Weight'
p283
S'Bites and Stings'
p284
S'Bites, Human'
p285
S'Blackwater Fever'
p286
S'Urinary Bladder Calculi'
p287
S'Urinary Bladder Diseases'
p288
S'Bladder Exstrophy'
p289
S'Urinary Bladder Fistula'
p290
S'Urinary Bladder Neck Obstruction'
p291
S'Urinary Bladder Neoplasms'
p292
S'Urinary Bladder, Neurogenic'
p293
S'Blast Crisis'
p294
S'Blast Injuries'
p295
S'Blastomycosis'
p296
S'Blepharitis'
p297
S'Blepharoptosis'
p298
S'Blepharospasm'
p299
S'Blind Loop Syndrome'
p300
S'Blindness'
p301
S'Blister'
p302
S'Blood Coagulation Disorders'
p303
S'Blood Group Incompatibility'
p304
S'Blood Platelet Disorders'
p305
S'Blood Protein Disorders'
p306
S'Bloom Syndrome'
p307
S'Bluetongue'
p308
S'Body Temperature Changes'
p309
S'Body Weight'
p310
S'Body Weight Changes'
p311
S'Bone Cysts'
p312
S'Bone Diseases'
p313
S'Bone Diseases, Developmental'
p314
S'Bone Diseases, Endocrine'
p315
S'Bone Diseases, Infectious'
p316
S'Bone Diseases, Metabolic'
p317
S'Bone Marrow Diseases'
p318
S'Bone Neoplasms'
p319
S'Bone Resorption'
p320
S'Border Disease'
p321
S'Bordetella Infections'
p322
S'Borna Disease'
p323
S'Borrelia Infections'
p324
S'Botulism'
p325
S'Boutonneuse Fever'
p326
S'Bovine Virus Diarrhea-Mucosal Disease'
p327
S"Bowen\\'s Disease"
p328
S'Bradycardia'
p329
S'Brain Abscess'
p330
S'Brain Concussion'
p331
S'Brain Damage, Chronic'
p332
S'Brain Death'
p333
S'Brain Diseases'
p334
S'Brain Diseases, Metabolic'
p335
S'Brain Edema'
p336
S'Brain Injuries'
p337
S'Brain Neoplasms'
p338
S'Branchioma'
p339
S'Breast Diseases'
p340
S'Breast Neoplasms'
p341
S'Breech Presentation'
p342
S'Brenner Tumor'
p343
S'Bronchial Diseases'
p344
S'Bronchial Fistula'
p345
S'Bronchial Neoplasms'
p346
S'Bronchial Spasm'
p347
S'Bronchiectasis'
p348
S'Bronchiolitis'
p349
S'Bronchiolitis Obliterans'
p350
S'Bronchiolitis, Viral'
p351
S'Bronchitis'
p352
S'Bronchogenic Cyst'
p353
S'Bronchopneumonia'
p354
S'Bronchopulmonary Dysplasia'
p355
S'Bronchopulmonary Sequestration'
p356
S'Brucellosis'
p357
S'Brucellosis, Bovine'
p358
S'Bruxism'
p359
S'Bulimia'
p360
S'Bundle-Branch Block'
p361
S'Bunyaviridae Infections'
p362
S'Burkitt Lymphoma'
p363
S'Burning Mouth Syndrome'
p364
S'Burns'
p365
S'Burns, Chemical'
p366
S'Burns, Electric'
p367
S'Burns, Inhalation'
p368
S'Bursitis'
p369
S'Byssinosis'
p370
S'Cachexia'
p371
S'Cadaver'
p372
S'Cadmium Poisoning'
p373
S'Calcinosis'
p374
S'Calciphylaxis'
p375
S'Calcium Metabolism Disorders'
p376
S'Calculi'
p377
S'Callosities'
p378
S'Campylobacter Infections'
p379
S'Candidiasis'
p380
S'Candidiasis, Chronic Mucocutaneous'
p381
S'Candidiasis, Cutaneous'
p382
S'Candidiasis, Oral'
p383
S'Candidiasis, Vulvovaginal'
p384
S'Marijuana Abuse'
p385
S'Caplan Syndrome'
p386
S'Carbohydrate Metabolism, Inborn Errors'
p387
S'Carbon Monoxide Poisoning'
p388
S'Carbon Tetrachloride Poisoning'
p389
S'Carbuncle'
p390
S'Carcinoid Heart Disease'
p391
S'Carcinoid Tumor'
p392
S'Carcinoma'
p393
S'Carcinoma in Situ'
p394
S'Carcinoma 256, Walker'
p395
S'Carcinoma, Basal Cell'
p396
S'Carcinoma, Basosquamous'
p397
S'Adenocarcinoma, Bronchiolo-Alveolar'
p398
S'Carcinoma, Bronchogenic'
p399
S'Carcinoma, Brown-Pearce'
p400
S'Carcinoma, Intraductal, Noninfiltrating'
p401
S'Carcinoma, Ehrlich Tumor'
p402
S'Carcinoma, Krebs 2'
p403
S'Adenocarcinoma, Mucinous'
p404
S'Carcinoma, Non-Small-Cell Lung'
p405
S'Carcinoma, Papillary'
p406
S'Carcinoma, Renal Cell'
p407
S'Adenocarcinoma, Scirrhous'
p408
S'Carcinoma, Squamous Cell'
p409
S'Carcinoma, Transitional Cell'
p410
S'Carcinosarcoma'
p411
S'Cardiac Output, Low'
p412
S'Cardiac Tamponade'
p413
S'Cardiomyopathy, Alcoholic'
p414
S'Cardiomyopathy, Dilated'
p415
S'Cardiomyopathy, Hypertrophic'
p416
S'Cardiomyopathy, Restrictive'
p417
S'Cardiovascular Diseases'
p418
S'Carotid Artery Diseases'
p419
S'Carotid Artery Thrombosis'
p420
S'Carotid Body Tumor'
p421
S'Carpal Tunnel Syndrome'
p422
S'Cartilage Diseases'
p423
S'Cat Diseases'
p424
S'Cat-Scratch Disease'
p425
S'Catalepsy'
p426
S'Cataplexy'
p427
S'Cataract'
p428
S'Catastrophic Illness'
p429
S'Catatonia'
p430
S'Cattle Diseases'
p431
S'Causalgia'
p432
S'Cecal Diseases'
p433
S'Cecal Neoplasms'
p434
S'Celiac Disease'
p435
S'Cell Transformation, Neoplastic'
p436
S'Cell Transformation, Viral'
p437
S'Cellulitis'
p438
S'Cementoma'
p439
S'Central Nervous System Diseases'
p440
S'Central Nervous System Infections'
p441
S'Cerebellar Ataxia'
p442
S'Cerebellar Diseases'
p443
S'Myoclonic Cerebellar Dyssynergia'
p444
S'Cerebellar Neoplasms'
p445
S'Intracranial Aneurysm'
p446
S'Hypoxia, Brain'
p447
S'Intracranial Arteriosclerosis'
p448
S'Intracranial Arteriovenous Malformations'
p449
S'Cerebral Arterial Diseases'
p450
S'Intracranial Embolism and Thrombosis'
p451
S'Cerebral Hemorrhage'
p452
S'Cerebral Infarction'
p453
S'Brain Ischemia'
p454
S'Ischemic Attack, Transient'
p455
S'Cerebral Palsy'
p456
S'Diffuse Cerebral Sclerosis of Schilder'
p457
S'Cerebral Ventricle Neoplasms'
p458
S'Cerebrospinal Fluid Otorrhea'
p459
S'Cerebrospinal Fluid Rhinorrhea'
p460
S'Cerebrovascular Disorders'
p461
S'Cervical Rib Syndrome'
p462
S'Uterine Cervicitis'
p463
S'Uterine Cervical Diseases'
p464
S'Uterine Cervical Dysplasia'
p465
S'Uterine Cervical Erosion'
p466
S'Uterine Cervical Incompetence'
p467
S'Uterine Cervical Neoplasms'
p468
S'Cestode Infections'
p469
S'Chagas Cardiomyopathy'
p470
S'Chancre'
p471
S'Chancroid'
p472
S'Charcot-Marie-Tooth Disease'
p473
S'Chediak-Higashi Syndrome'
p474
S'Cheilitis'
p475
S'Cherubism'
p476
S'Chest Pain'
p477
S'Cheyne-Stokes Respiration'
p478
S'Chiari-Frommel Syndrome'
p479
S'Chickenpox'
p480
S'Chilblains'
p481
S'Chlamydia Infections'
p482
S'Chlamydiaceae Infections'
p483
S'Choanal Atresia'
p484
S'Adenoma, Bile Duct'
p485
S'Cholangitis'
p486
S'Cholecystitis'
p487
S'Cholelithiasis'
p488
S'Cholera'
p489
S'Cholestasis'
p490
S'Cholestasis, Intrahepatic'
p491
S'Cholesteatoma'
p492
S'Choline Deficiency'
p493
S'Chondroblastoma'
p494
S'Chondrocalcinosis'
p495
S'Chondrodysplasia Punctata'
p496
S'Chondroma'
p497
S'Chondrosarcoma'
p498
S'Chordoma'
p499
S'Chorea'
p500
S'Hydatidiform Mole, Invasive'
p501
S'Chorioamnionitis'
p502
S'Choriocarcinoma'
p503
S'Chorioretinitis'
p504
S'Choristoma'
p505
S'Choroid Neoplasms'
p506
S'Choroid Hemorrhage'
p507
S'Choroiditis'
p508
S'Hemophilia B'
p509
S'Chromoblastomycosis'
p510
S'Chromosome Aberrations'
p511
S'Chromosome Deletion'
p512
S'Chromosome Fragility'
p513
S'Chronic Disease'
p514
S'Chylous Ascites'
p515
S'Chylothorax'
p516
S'Cicatrix'
p517
S'Ciliary Motility Disorders'
p518
S'Cleft Lip'
p519
S'Cleft Palate'
p520
S'Cleidocranial Dysplasia'
p521
S'Clonorchiasis'
p522
S'Clostridium Infections'
p523
S'Clubfoot'
p524
S'Cluster Headache'
p525
S'Cocarcinogenesis'
p526
S'Coccidioidomycosis'
p527
S'Coccidiosis'
p528
S'Cockayne Syndrome'
p529
S'Solitary Pulmonary Nodule'
p530
S'Colic'
p531
S'Colitis'
p532
S'Colitis, Ulcerative'
p533
S'Collagen Diseases'
p534
S"Colles\\' Fracture"
p535
S'Coloboma'
p536
S'Colonic Diseases'
p537
S'Colonic Diseases, Functional'
p538
S'Colonic Neoplasms'
p539
S'Colonic Polyps'
p540
S'Colonic Pseudo-Obstruction'
p541
S'Color Vision Defects'
p542
S'Colorado Tick Fever'
p543
S'Colorectal Neoplasms, Hereditary Nonpolyposis'
p544
S'Coma'
p545
S'Common Bile Duct Diseases'
p546
S'Common Bile Duct Neoplasms'
p547
S'Common Cold'
p548
S'Communicable Diseases'
p549
S'Communication Disorders'
p550
S'Compartment Syndromes'
p551
S'Condylomata Acuminata'
p552
S'Confusion'
p553
S'Conjunctival Diseases'
p554
S'Conjunctival Neoplasms'
p555
S'Conjunctivitis'
p556
S'Conjunctivitis, Acute Hemorrhagic'
p557
S'Conjunctivitis, Allergic'
p558
S'Conjunctivitis, Bacterial'
p559
S'Conjunctivitis, Inclusion'
p560
S'Conjunctivitis, Viral'
p561
S'Connective Tissue Diseases'
p562
S'Consciousness Disorders'
p563
S'Constipation'
p564
S'Constriction, Pathologic'
p565
S'Contracture'
p566
S'Contusions'
p567
S'Convalescence'
p568
S'Seizures, Febrile'
p569
S'Cor Triatriatum'
p570
S'Corneal Diseases'
p571
S'Corneal Dystrophies, Hereditary'
p572
S'Corneal Opacity'
p573
S'Corneal Ulcer'
p574
S'Coronary Aneurysm'
p575
S'Coronary Artery Disease'
p576
S'Coronary Disease'
p577
S'Coronary Thrombosis'
p578
S'Coronary Vasospasm'
p579
S'Coronary Vessel Anomalies'
p580
S'Coronaviridae Infections'
p581
S'Corynebacterium Infections'
p582
S'Cough'
p583
S'Coxsackievirus Infections'
p584
S'Cracked Tooth Syndrome'
p585
S'Cranial Nerve Diseases'
p586
S'Cranial Nerve Neoplasms'
p587
S'Craniofacial Dysostosis'
p588
S'Craniopharyngioma'
p589
S'Craniosynostoses'
p590
S'Congenital Hypothyroidism'
p591
S'Cri-du-Chat Syndrome'
p592
S'Crigler-Najjar Syndrome'
p593
S'Crisscross Heart'
p594
S'Crohn Disease'
p595
S'Cross Infection'
p596
S'Croup'
p597
S'Crush Syndrome'
p598
S'Cryoglobulinemia'
p599
S'Cryptococcosis'
p600
S'Cryptorchidism'
p601
S'Cryptosporidiosis'
p602
S'Cushing Syndrome'
p603
S'Cutis Laxa'
p604
S'Cyanosis'
p605
S'Carcinoma, Adenoid Cystic'
p606
S'Cystadenocarcinoma'
p607
S'Cystadenoma'
p608
S'Cystic Fibrosis'
p609
S'Cysticercosis'
p610
S'Cystinosis'
p611
S'Cystinuria'
p612
S'Cystitis'
p613
S'Phyllodes Tumor'
p614
S'Cysts'
p615
S'Cytomegalovirus Infections'
p616
S'Dacryocystitis'
p617
S'Dandy-Walker Syndrome'
p618
S'De Lange Syndrome'
p619
S'Deafness'
p620
S'Hearing Loss, Sudden'
p621
S'Death'
p622
S'Death, Sudden'
p623
S'Decalcification, Pathologic'
p624
S'Decerebrate State'
p625
S'Decompression Sickness'
p626
S'Pressure Ulcer'
p627
S'Deficiency Diseases'
p628
S'Deglutition Disorders'
p629
S'Dehydration'
p630
S'Delirium'
p631
S'Hepatitis D'
p632
S'Dementia'
p633
S'Demyelinating Diseases'
p634
S'Dengue'
p635
S'Dens in Dente'
p636
S'Dental Calculus'
p637
S'Dental Caries'
p638
S'Dental Deposits'
p639
S'Dental Enamel Hypoplasia'
p640
S'Dental Fissures'
p641
S'Dental Fistula'
p642
S'Dental Leakage'
p643
S'Dental Occlusion, Traumatic'
p644
S'Dental Plaque'
p645
S'Dental Pulp Calcification'
p646
S'Dental Pulp Diseases'
p647
S'Dental Pulp Exposure'
p648
S'Dental Pulp Necrosis'
p649
S'Dentigerous Cyst'
p650
S'Dentin Dysplasia'
p651
S'Dentin Sensitivity'
p652
S'Dentin, Secondary'
p653
S'Dentinogenesis Imperfecta'
p654
S'Dermatitis'
p655
S'Dermatitis, Exfoliative'
p656
S'Dermatitis Herpetiformis'
p657
S'Drug Eruptions'
p658
S'Dermatitis, Atopic'
p659
S'Dermatitis, Contact'
p660
S'Dermatomycoses'
p661
S'Dermatomyositis'
p662
S'Dermoid Cyst'
p663
S'Dextrocardia'
p664
S'Diabetes Insipidus'
p665
S'Diabetes Mellitus'
p666
S'Diabetes Mellitus, Experimental'
p667
S'Diabetes Mellitus, Type 1'
p668
S'Diabetes Mellitus, Lipoatrophic'
p669
S'Diabetes Mellitus, Type 2'
p670
S'Diabetic Angiopathies'
p671
S'Diabetic Coma'
p672
S'Diabetic Nephropathies'
p673
S'Diabetic Neuropathies'
p674
S'Diabetic Retinopathy'
p675
S'Diaper Rash'
p676
S'Diaphragmatic Eventration'
p677
S'Camurati-Engelmann Syndrome'
p678
S'Diarrhea'
p679
S'Diarrhea, Infantile'
p680
S'Vipoma'
p681
S'Diastema'
p682
S'Dicrocoeliasis'
p683
S'Dictyocaulus Infections'
p684
S'Dientamoebiasis'
p685
S'Hyperostosis, Diffuse Idiopathic Skeletal'
p686
S'DiGeorge Syndrome'
p687
S'Digestive System Abnormalities'
p688
S'Digestive System Diseases'
p689
S'Digestive System Neoplasms'
p690
S'Dilatation, Pathologic'
p691
S'Dipetalonema Infections'
p692
S'Diphtheria'
p693
S'Diphyllobothriasis'
p694
S'Diplopia'
p695
S'Dirofilariasis'
p696
S'Disease'
p697
S'Disease Models, Animal'
p698
S'Disease Susceptibility'
p699
S'Diseases in Twins'
p700
S'Dislocations'
p701
S'Disseminated Intravascular Coagulation'
p702
S'Distemper'
p703
S'Diverticulitis'
p704
S'Diverticulitis, Colonic'
p705
S'Diverticulum'
p706
S'Diverticulum, Colon'
p707
S'Dizziness'
p708
S'DNA Virus Infections'
p709
S'Dog Diseases'
p710
S'Double Outlet Right Ventricle'
p711
S'Dourine'
p712
S'Down Syndrome'
p713
S'Dracunculiasis'
p714
S'Drowning'
p715
S'Drug Hypersensitivity'
p716
S'Drug Toxicity'
p717
S'Dry Socket'
p718
S'Duane Retraction Syndrome'
p719
S'Ductus Arteriosus, Patent'
p720
S'Dumping Syndrome'
p721
S'Duodenal Diseases'
p722
S'Duodenal Neoplasms'
p723
S'Duodenal Obstruction'
p724
S'Duodenal Ulcer'
p725
S'Duodenitis'
p726
S'Duodenogastric Reflux'
p727
S'Dupuytren Contracture'
p728
S'Dwarfism'
p729
S'Dwarfism, Pituitary'
p730
S'Dysarthria'
p731
S'Dysautonomia, Familial'
p732
S'Dysentery'
p733
S'Dysentery, Amebic'
p734
S'Dysentery, Bacillary'
p735
S'Dysgammaglobulinemia'
p736
S'Dysgerminoma'
p737
S'Dysgeusia'
p738
S'Dyskinesia, Drug-Induced'
p739
S'Dyslexia'
p740
S'Dyslexia, Acquired'
p741
S'Dysmenorrhea'
p742
S'Dysostoses'
p743
S'Dyspareunia'
p744
S'Dyspepsia'
p745
S'Dysplastic Nevus Syndrome'
p746
S'Dyspnea'
p747
S'Dyspnea, Paroxysmal'
p748
S'Dystocia'
p749
S'Dystonia'
p750
S'Dystonia Musculorum Deformans'
p751
S'Ear Deformities, Acquired'
p752
S'Ear Diseases'
p753
S'Ear Neoplasms'
p754
S'Earache'
p755
S'Ebstein Anomaly'
p756
S'Ecchymosis'
p757
S'Echinococcosis'
p758
S'Echinococcosis, Hepatic'
p759
S'Echinococcosis, Pulmonary'
p760
S'Echinostomiasis'
p761
S'Echolalia'
p762
S'Echovirus Infections'
p763
S'Eclampsia'
p764
S'Ecthyma'
p765
S'Ecthyma, Contagious'
p766
S'Ectodermal Dysplasia'
p767
S'Ectoparasitic Infestations'
p768
S'Ectopia Lentis'
p769
S'Ectromelia'
p770
S'Ectromelia, Infectious'
p771
S'Ectropion'
p772
S'Eczema'
p773
S'Edema'
p774
S'Edema Disease of Swine'
p775
S'Edema, Cardiac'
p776
S'Ehlers-Danlos Syndrome'
p777
S'Eisenmenger Complex'
p778
S'Electric Injuries'
p779
S'Elephantiasis'
p780
S'Elephantiasis, Filarial'
p781
S'Elliptocytosis, Hereditary'
p782
S'Ellis-Van Creveld Syndrome'
p783
S'Emaciation'
p784
S'Embolism'
p785
S'Embolism, Air'
p786
S'Embolism, Amniotic Fluid'
p787
S'Embolism, Fat'
p788
S'Emergencies'
p789
S'Emphysema'
p790
S'Empty Sella Syndrome'
p791
S'Empyema'
p792
S'Empyema, Tuberculous'
p793
S'Encephalitis'
p794
S'Encephalitis, California'
p795
S'Encephalitis, Arbovirus'
p796
S'Encephalitis, Japanese'
p797
S'Encephalomyelitis, Acute Disseminated'
p798
S'Encephalitis, St. Louis'
p799
S'Encephalitis, Tick-Borne'
p800
S'Encephalocele'
p801
S'Encephalomalacia'
p802
S'Encephalomyelitis'
p803
S'Encephalomyelitis, Autoimmune, Experimental'
p804
S'Encephalomyelitis, Enzootic Porcine'
p805
S'Encephalomyelitis, Equine'
p806
S'Leukoencephalitis, Acute Hemorrhagic'
p807
S'Encephalomyelitis, Venezuelan Equine'
p808
S'Enchondromatosis'
p809
S'Encopresis'
p810
S'Endarteritis'
p811
S'Endocardial Cushion Defects'
p812
S'Endocardial Fibroelastosis'
p813
S'Endocarditis'
p814
S'Endocarditis, Bacterial'
p815
S'Endocarditis, Subacute Bacterial'
p816
S'Endocrine System Diseases'
p817
S'Endocrine Gland Neoplasms'
p818
S'Endometrial Hyperplasia'
p819
S'Endometriosis'
p820
S'Endometritis'
p821
S'Endomyocardial Fibrosis'
p822
S'Entamoebiasis'
p823
S'Enteritis'
p824
S'Enteritis, Transmissible, of Turkeys'
p825
S'Enterobacteriaceae Infections'
p826
S'Enterocolitis'
p827
S'Enterocolitis, Pseudomembranous'
p828
S'Enterotoxemia'
p829
S'Enterovirus Infections'
p830
S'Entropion'
p831
S'Enuresis'
p832
S'Eosinophilia'
p833
S'Eosinophilic Granuloma'
p834
S'Ependymoma'
p835
S'Ephemeral Fever'
p836
S'Epidermal Cyst'
p837
S'Epidermal Necrolysis, Toxic'
p838
S'Epidermitis, Exudative, of Swine'
p839
S'Epidermodysplasia Verruciformis'
p840
S'Epidermolysis Bullosa'
p841
S'Epididymitis'
p842
S'Epiglottitis'
p843
S'Epilepsy'
p844
S'Epilepsies, Partial'
p845
S'Epilepsy, Generalized'
p846
S'Epilepsy, Tonic-Clonic'
p847
S'Epilepsies, Myoclonic'
p848
S'Epilepsy, Absence'
p849
S'Epilepsy, Temporal Lobe'
p850
S'Epilepsy, Post-Traumatic'
p851
S'Epiphyses, Slipped'
p852
S'Epispadias'
p853
S'Epistaxis'
p854
S'Equine Infectious Anemia'
p855
S'Equinus Deformity'
p856
S'Ergotism'
p857
S'Eructation'
p858
S'Erysipelas'
p859
S'Erysipeloid'
p860
S'Erysipelothrix Infections'
p861
S'Erythema'
p862
S'Erythema Induratum'
p863
S'Erythema Multiforme'
p864
S'Erythema Nodosum'
p865
S'Erythrasma'
p866
S'Erythroblastosis, Fetal'
p867
S'Leukemia, Erythroblastic, Acute'
p868
S'Erythromelalgia'
p869
S'Erythroplasia'
p870
S'Escherichia coli Infections'
p871
S'Esophageal Achalasia'
p872
S'Esophageal and Gastric Varices'
p873
S'Esophageal Atresia'
p874
S'Esophageal Cyst'
p875
S'Esophageal Diseases'
p876
S'Diverticulum, Esophageal'
p877
S'Esophageal Fistula'
p878
S'Esophageal Neoplasms'
p879
S'Esophageal Perforation'
p880
S'Esophageal Stenosis'
p881
S'Esophagitis'
p882
S'Esophagitis, Peptic'
p883
S'Esotropia'
p884
S'Eunuchism'
p885
S'Euthyroid Sick Syndromes'
p886
S'Exanthema'
p887
S'Exanthema Subitum'
p888
S'Exophthalmos'
p889
S'Exostoses'
p890
S'Exostoses, Multiple Hereditary'
p891
S'Exotropia'
p892
S'Cardiac Complexes, Premature'
p893
S'Extravasation of Diagnostic and Therapeutic Materials'
p894
S'Eye Abnormalities'
p895
S'Eye Burns'
p896
S'Eye Diseases'
p897
S'Eye Foreign Bodies'
p898
S'Eye Hemorrhage'
p899
S'Eye Injuries'
p900
S'Eye Manifestations'
p901
S'Eye Neoplasms'
p902
S'Eyelid Diseases'
p903
S'Eyelid Neoplasms'
p904
S'Facial Asymmetry'
p905
S'Facial Dermatoses'
p906
S'Facial Hemiatrophy'
p907
S'Facial Injuries'
p908
S'Facial Neoplasms'
p909
S'Facial Nerve Diseases'
p910
S'Facial Neuralgia'
p911
S'Facial Pain'
p912
S'Facial Paralysis'
p913
S'Factor V Deficiency'
p914
S'Factor VII Deficiency'
p915
S'Factor X Deficiency'
p916
S'Factor XI Deficiency'
p917
S'Factor XII Deficiency'
p918
S'Factor XIII Deficiency'
p919
S'Failure to Thrive'
p920
S'Fallopian Tube Diseases'
p921
S'Fallopian Tube Neoplasms'
p922
S'Fanconi Syndrome'
p923
S'Fanconi Anemia'
p924
S"Farmer\\'s Lung"
p925
S'Fasciculation'
p926
S'Fasciitis'
p927
S'Fascioliasis'
p928
S'Fascioloidiasis'
p929
S'Fat Necrosis'
p930
S'Fatigue'
p931
S'Mental Fatigue'
p932
S'Fatty Liver'
p933
S'Fatty Liver, Alcoholic'
p934
S'Favism'
p935
S'Fecal Incontinence'
p936
S'Fecal Impaction'
p937
S'Feline Panleukopenia'
p938
S'Felty Syndrome'
p939
S'Female Urogenital Diseases and Pregnancy Complications'
p940
S'Feminization'
p941
S'Femoral Fractures'
p942
S'Femoral Neck Fractures'
p943
S'Femoral Neoplasms'
p944
S'Femur Head Necrosis'
p945
S'Fetal Alcohol Syndrome'
p946
S'Fetal Hypoxia'
p947
S'Fetal Death'
p948
S'Fetal Diseases'
p949
S'Fetal Distress'
p950
S'Fetal Growth Retardation'
p951
S'Fetal Macrosomia'
p952
S'Fetal Membranes, Premature Rupture'
p953
S'Fetal Resorption'
p954
S'Fetofetal Transfusion'
p955
S'Fetomaternal Transfusion'
p956
S'Fever'
p957
S'Fever of Unknown Origin'
p958
S'Fibrocystic Breast Disease'
p959
S'Fibroma'
p960
S'Fibromatosis, Gingival'
p961
S'Fibromuscular Dysplasia'
p962
S'Fibrosarcoma'
p963
S'Fibrosis'
p964
S'Fibromyalgia'
p965
S'Fibrous Dysplasia of Bone'
p966
S'Fibrous Dysplasia, Monostotic'
p967
S'Fibrous Dysplasia, Polyostotic'
p968
S'Filariasis'
p969
S'Finger Injuries'
p970
S'Fish Diseases'
p971
S'Fissure in Ano'
p972
S'Fistula'
p973
S'Flail Chest'
p974
S'Flatfoot'
p975
S'Flatulence'
p976
S'Fluoride Poisoning'
p977
S'Flushing'
p978
S'Focal Dermal Hypoplasia'
p979
S'Focal Infection'
p980
S'Focal Infection, Dental'
p981
S'Folic Acid Deficiency'
p982
S'Follicular Cyst'
p983
S'Folliculitis'
p984
S'Food Hypersensitivity'
p985
S'Foodborne Diseases'
p986
S'Foot Deformities'
p987
S'Foot Deformities, Acquired'
p988
S'Foot Deformities, Congenital'
p989
S'Foot Dermatoses'
p990
S'Foot Diseases'
p991
S'Foot Rot'
p992
S'Foot-and-Mouth Disease'
p993
S'Forearm Injuries'
p994
S'Foreign Bodies'
p995
S'Foreign-Body Migration'
p996
S'Foreign-Body Reaction'
p997
S'Influenza in Birds'
p998
S'Fowlpox'
p999
S'Fox-Fordyce Disease'
p1000
S'Fractures, Closed'
p1001
S'Fractures, Open'
p1002
S'Fractures, Spontaneous'
p1003
S'Fractures, Ununited'
p1004
S'Fragile X Syndrome'
p1005
S'Freemartinism'
p1006
S'Friedreich Ataxia'
p1007
S'Frostbite'
p1008
S'Fructose Intolerance'
p1009
S"Fuchs\\' Endothelial Dystrophy"
p1010
S'Fucosidosis'
p1011
S'Funnel Chest'
p1012
S'Furunculosis'
p1013
S'Fused Teeth'
p1014
S'Fusobacterium Infections'
p1015
S'Gagging'
p1016
S'Galactorrhea'
p1017
S'Galactosemias'
p1018
S'Gallbladder Diseases'
p1019
S'Gallbladder Neoplasms'
p1020
S'Ganglioneuroma'
p1021
S'Gangliosidoses'
p1022
S'Gangrene'
p1023
S'Gardner Syndrome'
p1024
S'Gas Gangrene'
p1025
S'Gas Poisoning'
p1026
S'Gastric Fistula'
p1027
S'Gastritis'
p1028
S'Gastritis, Atrophic'
p1029
S'Gastritis, Hypertrophic'
p1030
S'Gastroenteritis'
p1031
S'Gastroenteritis, Transmissible, of Swine'
p1032
S'Gastroesophageal Reflux'
p1033
S'Gastrointestinal Diseases'
p1034
S'Gastrointestinal Neoplasms'
p1035
S'Gaucher Disease'
p1036
S'Genital Diseases, Female'
p1037
S'Genital Diseases, Male'
p1038
S'Genital Neoplasms, Female'
p1039
S'Genital Neoplasms, Male'
p1040
S'Geotrichosis'
p1041
S'Gerstmann Syndrome'
p1042
S'Giant Cell Tumors'
p1043
S'Giant Lymph Node Hyperplasia'
p1044
S'Giardiasis'
p1045
S'Gigantism'
p1046
S'Gilbert Disease'
p1047
S'Tourette Syndrome'
p1048
S'Gingival Diseases'
p1049
S'Gingival Hemorrhage'
p1050
S'Gingival Hyperplasia'
p1051
S'Gingival Hypertrophy'
p1052
S'Gingival Neoplasms'
p1053
S'Gingival Pocket'
p1054
S'Gingival Recession'
p1055
S'Gingivitis'
p1056
S'Gingivitis, Necrotizing Ulcerative'
p1057
S'Glanders'
p1058
S'Glaucoma'
p1059
S'Glaucoma, Open-Angle'
p1060
S'Glioblastoma'
p1061
S'Glioma'
p1062
S'Gliosis'
p1063
S'Glomus Tumor'
p1064
S'Glomerulonephritis'
p1065
S'Glomerulonephritis, IGA'
p1066
S'Glomerulosclerosis, Focal Segmental'
p1067
S'Glomus Jugulare Tumor'
p1068
S'Glossalgia'
p1069
S'Glossitis'
p1070
S'Glossitis, Benign Migratory'
p1071
S'Glucagonoma'
p1072
S'Glycogen Storage Disease Type I'
p1073
S'Glucosephosphate Dehydrogenase Deficiency'
p1074
S'Glycogen Storage Disease'
p1075
S'Glycogen Storage Disease Type II'
p1076
S'Glycogen Storage Disease Type III'
p1077
S'Glycogen Storage Disease Type IV'
p1078
S'Glycogen Storage Disease Type V'
p1079
S'Glycogen Storage Disease Type VI'
p1080
S'Glycogen Storage Disease Type VII'
p1081
S'Glycogen Storage Disease Type VIII'
p1082
S'Glycosuria'
p1083
S'Glycosuria, Renal'
p1084
S'Goiter'
p1085
S'Goiter, Endemic'
p1086
S'Goiter, Nodular'
p1087
S'Goiter, Substernal'
p1088
S'Goldenhar Syndrome'
p1089
S'Gonadal Disorders'
p1090
S'Gonadal Dysgenesis'
p1091
S'Gonadal Dysgenesis, Mixed'
p1092
S'Gonadal Dysgenesis, 46,XY'
p1093
S'Gonorrhea'
p1094
S'Gout'
p1095
S'Graft Occlusion, Vascular'
p1096
S'Graft vs Host Disease'
p1097
S'Granuloma'
p1098
S'Granuloma Inguinale'
p1099
S'Granuloma, Giant Cell'
p1100
S'Granuloma, Laryngeal'
p1101
S'Granuloma, Lethal Midline'
p1102
S'Granuloma, Plasma Cell'
p1103
S'Granulomatous Disease, Chronic'
p1104
S'Granulosa Cell Tumor'
p1105
S'Graves Disease'
p1106
S'Growth Disorders'
p1107
S'Gynatresia'
p1108
S'Gynecomastia'
p1109
S'Haemonchiasis'
p1110
S'Haemophilus Infections'
p1111
S'Hair Diseases'
p1112
S'Halitosis'
p1113
S"Hallermann\\'s Syndrome"
p1114
S'Pantothenate Kinase-Associated Neurodegeneration'
p1115
S'Hallucinations'
p1116
S'Hallux Valgus'
p1117
S'Hamartoma'
p1118
S'Hamartoma Syndrome, Multiple'
p1119
S'Hand Deformities'
p1120
S'Hand Deformities, Acquired'
p1121
S'Hand Deformities, Congenital'
p1122
S'Hand Dermatoses'
p1123
S'Hand Injuries'
p1124
S'Hand, Foot and Mouth Disease'
p1125
S'Hartnup Disease'
p1126
S'Rhinitis, Allergic, Seasonal'
p1127
S'Head and Neck Neoplasms'
p1128
S'Craniocerebral Trauma'
p1129
S'Headache'
p1130
S'Hearing Disorders'
p1131
S'Hearing Loss, Bilateral'
p1132
S'Hearing Loss, Central'
p1133
S'Hearing Loss, Conductive'
p1134
S'Hearing Loss, Functional'
p1135
S'Hearing Loss, High-Frequency'
p1136
S'Hearing Loss, Noise-Induced'
p1137
S'Hearing Loss, Sensorineural'
p1138
S'Heart Aneurysm'
p1139
S'Heart Arrest'
p1140
S'Heart Block'
p1141
S'Heart Defects, Congenital'
p1142
S'Heart Diseases'
p1143
S'Cardiomegaly'
p1144
S'Heart Failure'
p1145
S'Heart Injuries'
p1146
S'Heart Murmurs'
p1147
S'Heart Neoplasms'
p1148
S'Heart Rupture'
p1149
S'Heart Rupture, Post-Infarction'
p1150
S'Heart Septal Defects'
p1151
S'Heart Septal Defects, Atrial'
p1152
S'Heart Septal Defects, Ventricular'
p1153
S'Heart Valve Diseases'
p1154
S'Heartburn'
p1155
S'Heartwater Disease'
p1156
S'Heat Exhaustion'
p1157
S'Heavy Chain Disease'
p1158
S'Helminthiasis'
p1159
S'Helminthiasis, Animal'
p1160
S'Hemangioendothelioma'
p1161
S'Hemangioma'
p1162
S'Hemangioma, Cavernous'
p1163
S'Hemangiopericytoma'
p1164
S'Hemangiosarcoma'
p1165
S'Hemarthrosis'
p1166
S'Hematemesis'
p1167
S'Hematocele'
p1168
S'Hematocolpos'
p1169
S'Hematologic Diseases'
p1170
S'Hematoma'
p1171
S'Hematoma, Epidural, Cranial'
p1172
S'Hematoma, Subdural'
p1173
S'Hematometra'
p1174
S'Hematuria'
p1175
S'Hemianopsia'
p1176
S'Hemic and Lymphatic Diseases'
p1177
S'Hemiplegia'
p1178
S'Hemobilia'
p1179
S'Hemochromatosis'
p1180
S'Hemoglobin C Disease'
p1181
S'Hemoglobin SC Disease'
p1182
S'Hemoglobinopathies'
p1183
S'Hemoglobinuria'
p1184
S'Hemoglobinuria, Paroxysmal'
p1185
S'Hemolysis'
p1186
S'Hemolytic-Uremic Syndrome'
p1187
S'Hemoperitoneum'
p1188
S'Hemophilia A'
p1189
S'Hemopneumothorax'
p1190
S'Hemoptysis'
p1191
S'Hemorrhage'
p1192
S'Gastrointestinal Hemorrhage'
p1193
S'Oral Hemorrhage'
p1194
S'Postpartum Hemorrhage'
p1195
S'Hemorrhagic Disorders'
p1196
S'Vitamin K Deficiency Bleeding'
p1197
S'Hemorrhagic Fever, American'
p1198
S'Hemorrhagic Fever, Crimean'
p1199
S'Hemorrhagic Fever with Renal Syndrome'
p1200
S'Hemorrhagic Fever, Omsk'
p1201
S'Hemorrhagic Fevers, Viral'
p1202
S'Hemorrhagic Septicemia'
p1203
S'Hemorrhoids'
p1204
S'Hemosiderosis'
p1205
S'Hemothorax'
p1206
S'Hepatic Encephalopathy'
p1207
S'Budd-Chiari Syndrome'
p1208
S'Hepatic Veno-Occlusive Disease'
p1209
S'Hepatitis'
p1210
S'Hepatitis A'
p1211
S'Hepatitis B'
p1212
S'Hepatitis, Alcoholic'
p1213
S'Hepatitis, Animal'
p1214
S'Hepatitis, Chronic'
p1215
S'Hepatitis, Infectious Canine'
p1216
S'Hepatitis, Viral, Animal'
p1217
S'Hepatitis, Viral, Human'
p1218
S'Hepatitis C'
p1219
S'Hepatolenticular Degeneration'
p1220
S'Carcinoma, Hepatocellular'
p1221
S'Hepatomegaly'
p1222
S'Hepatorenal Syndrome'
p1223
S'Hernia'
p1224
S'Hernia, Diaphragmatic'
p1225
S'Hernia, Diaphragmatic, Traumatic'
p1226
S'Hernia, Femoral'
p1227
S'Hernia, Hiatal'
p1228
S'Hernia, Inguinal'
p1229
S'Hernia, Obturator'
p1230
S'Hernia, Umbilical'
p1231
S'Hernia, Ventral'
p1232
S'Heroin Dependence'
p1233
S'Herpangina'
p1234
S'Herpes Genitalis'
p1235
S'Pemphigoid Gestationis'
p1236
S'Herpes Labialis'
p1237
S'Herpes Simplex'
p1238
S'Herpes Zoster'
p1239
S'Herpes Zoster Ophthalmicus'
p1240
S'Herpesviridae Infections'
p1241
S'Hiccup'
p1242
S'Adenoma, Sweat Gland'
p1243
S'High Pressure Neurological Syndrome'
p1244
S'Hip Contracture'
p1245
S'Hip Dislocation'
p1246
S'Hip Dislocation, Congenital'
p1247
S'Hip Dysplasia, Canine'
p1248
S'Hip Fractures'
p1249
S'von Hippel-Lindau Disease'
p1250
S'Hirschsprung Disease'
p1251
S'Hirsutism'
p1252
S'Histiocytosis, Langerhans-Cell'
p1253
S'Histoplasmosis'
p1254
S'HIV Seropositivity'
p1255
S'Hoarseness'
p1256
S'Hodgkin Disease'
p1257
S'Classical Swine Fever'
p1258
S'Homocystinuria'
p1259
S'Hookworm Infections'
p1260
S'Hordeolum'
p1261
S'Horner Syndrome'
p1262
S'Horse Diseases'
p1263
S'Deltaretrovirus Infections'
p1264
S'Humeral Fractures'
p1265
S'Huntington Disease'
p1266
S'Hyaline Membrane Disease'
p1267
S'Hydatidiform Mole'
p1268
S'Polyhydramnios'
p1269
S'Hydranencephaly'
p1270
S'Hydrarthrosis'
p1271
S'Hydroa Vacciniforme'
p1272
S'Testicular Hydrocele'
p1273
S'Hydrocephalus'
p1274
S'Hydrocephalus, Normal Pressure'
p1275
S'Hydronephrosis'
p1276
S'Hydrophthalmos'
p1277
S'Hydropneumothorax'
p1278
S'Hydrothorax'
p1279
S'Hymenolepiasis'
p1280
S'Hyperaldosteronism'
p1281
S'Hyperalgesia'
p1282
S'Hyperbilirubinemia'
p1283
S'Hyperbilirubinemia, Hereditary'
p1284
S'Hypercalcemia'
p1285
S'Hypercapnia'
p1286
S'Hypercementosis'
p1287
S'Hypercholesterolemia'
p1288
S'Hyperlipoproteinemia Type II'
p1289
S'Hyperemesis Gravidarum'
p1290
S'Hyperemia'
p1291
S'Hyperesthesia'
p1292
S'Hypergammaglobulinemia'
p1293
S'Hyperglycemia'
p1294
S'Hyperglycemic Hyperosmolar Nonketotic Coma'
p1295
S'Hyperhidrosis'
p1296
S'Hyperinsulinism'
p1297
S'Hyperkalemia'
p1298
S'Hyperkinesis'
p1299
S'Hyperlipidemias'
p1300
S'Hyperlipidemia, Familial Combined'
p1301
S'Hyperlipoproteinemias'
p1302
S'Hyperlipoproteinemia Type III'
p1303
S'Hyperlipoproteinemia Type IV'
p1304
S'Hyperlipoproteinemia Type V'
p1305
S'Hypernatremia'
p1306
S'Hyperopia'
p1307
S'Hyperostosis Frontalis Interna'
p1308
S'Hyperostosis, Cortical, Congenital'
p1309
S'Hyperoxaluria'
p1310
S'Hyperoxaluria, Primary'
p1311
S'Hyperparathyroidism'
p1312
S'Hyperparathyroidism, Secondary'
p1313
S'Hyperphagia'
p1314
S'Hyperpituitarism'
p1315
S'Hyperplasia'
p1316
S'Hyperprolactinemia'
p1317
S'Hypersensitivity'
p1318
S'Hypersensitivity, Delayed'
p1319
S'Hypersensitivity, Immediate'
p1320
S'Disorders of Excessive Somnolence'
p1321
S'Hypersplenism'
p1322
S'Hypertelorism'
p1323
S'Hypertension'
p1324
S'Hypertension, Malignant'
p1325
S'Hypertension, Portal'
p1326
S'Hypertension, Pulmonary'
p1327
S'Hypertension, Renal'
p1328
S'Hypertension, Renovascular'
p1329
S'Hyperthyroidism'
p1330
S'Hyperthyroxinemia'
p1331
S'Hypertrichosis'
p1332
S'Hypertrophy'
p1333
S'Hyperventilation'
p1334
S'Hypervitaminosis A'
p1335
S'Hypesthesia'
p1336
S'Hyphema'
p1337
S'Hypoaldosteronism'
p1338
S'Hypobetalipoproteinemias'
p1339
S'Hypocalcemia'
p1340
S'Hypodermyiasis'
p1341
S'Hypoglycemia'
p1342
S'Hypogonadism'
p1343
S'Hypohidrosis'
p1344
S'Hypokalemia'
p1345
S'Hypolipoproteinemias'
p1346
S'Hyponatremia'
p1347
S'Hypoparathyroidism'
p1348
S'Hypopharyngeal Neoplasms'
p1349
S'Hypophosphatasia'
p1350
S'Hypophosphatemia, Familial'
p1351
S'Hypopituitarism'
p1352
S'Hypoproteinemia'
p1353
S'Hypoprothrombinemias'
p1354
S'Hypospadias'
p1355
S'Hypotension'
p1356
S'Hypotension, Orthostatic'
p1357
S'Hypothalamic Diseases'
p1358
S'Hypothalamic Neoplasms'
p1359
S'Hypothermia'
p1360
S'Hypothyroidism'
p1361
S'Hypotrichosis'
p1362
S'Hypoventilation'
p1363
S'Iatrogenic Disease'
p1364
S'Ichthyosis'
p1365
S'Ileal Diseases'
p1366
S'Ileal Neoplasms'
p1367
S'Ileitis'
p1368
S'Illusions'
p1369
S'Immersion Foot'
p1370
S'Immune Complex Diseases'
p1371
S'Immunoblastic Lymphadenopathy'
p1372
S'Immunologic Deficiency Syndromes'
p1373
S'Immune System Diseases'
p1374
S'Immunoproliferative Disorders'
p1375
S'Immunoproliferative Small Intestinal Disease'
p1376
S'Impetigo'
p1377
S'Erectile Dysfunction'
p1378
S'Inappropriate ADH Syndrome'
p1379
S'Incontinentia Pigmenti'
p1380
S'Inert Gas Narcosis'
p1381
S'Infant Nutrition Disorders'
p1382
S'Infant, Newborn, Diseases'
p1383
S'Infant, Premature, Diseases'
p1384
S'Infarction'
p1385
S'Infection'
p1386
S'Infectious Bovine Rhinotracheitis'
p1387
S'Infectious Mononucleosis'
p1388
S'Infertility'
p1389
S'Infertility, Female'
p1390
S'Infertility, Male'
p1391
S'Inflammation'
p1392
S'Influenza, Human'
p1393
S'Disorders of Environmental Origin'
p1394
S'Insect Bites and Stings'
p1395
S'Sleep Initiation and Maintenance Disorders'
p1396
S'Insulin Coma'
p1397
S'Insulin Resistance'
p1398
S'Insulinoma'
p1399
S'Intermittent Claudication'
p1400
S'Intertrigo'
p1401
S'Intervertebral Disc Displacement'
p1402
S'Intestinal Atresia'
p1403
S'Intestinal Diseases'
p1404
S'Intestinal Diseases, Parasitic'
p1405
S'Intestinal Fistula'
p1406
S'Intestinal Neoplasms'
p1407
S'Intestinal Obstruction'
p1408
S'Intestinal Perforation'
p1409
S'Intestinal Polyps'
p1410
S'Intestinal Pseudo-Obstruction'
p1411
S'Intraoperative Complications'
p1412
S'Intussusception'
p1413
S'Chromosome Inversion'
p1414
S'Iris Diseases'
p1415
S'Iritis'
p1416
S'Ischemia'
p1417
S'Adenoma, Islet Cell'
p1418
S'Creutzfeldt-Jakob Syndrome'
p1419
S'Jaundice'
p1420
S'Jaundice, Chronic Idiopathic'
p1421
S'Jaundice, Neonatal'
p1422
S'Jaw Abnormalities'
p1423
S'Jaw Cysts'
p1424
S'Jaw Diseases'
p1425
S'Jaw Fractures'
p1426
S'Jaw Neoplasms'
p1427
S'Jaw, Edentulous'
p1428
S'Jaw, Edentulous, Partially'
p1429
S'Jejunal Diseases'
p1430
S'Jejunal Neoplasms'
p1431
S"Job\\'s Syndrome"
p1432
S'Joint Diseases'
p1433
S'Joint Instability'
p1434
S'Joint Loose Bodies'
p1435
S'Kaposi Varicelliform Eruption'
p1436
S'Kartagener Syndrome'
p1437
S'Kearns-Sayre Syndrome'
p1438
S'Keloid'
p1439
S'Keratitis'
p1440
S'Keratitis, Dendritic'
p1441
S'Keratoacanthoma'
p1442
S'Keratoconjunctivitis'
p1443
S'Keratoconjunctivitis Sicca'
p1444
S'Keratoconjunctivitis, Infectious'
p1445
S'Keratoconus'
p1446
S'Keratosis'
p1447
S'Darier Disease'
p1448
S'Keratoderma, Palmoplantar'
p1449
S'Kernicterus'
p1450
S'Ketosis'
p1451
S'Kidney Calculi'
p1452
S'Kidney Cortex Necrosis'
p1453
S'Kidney Diseases'
p1454
S'Kidney Failure, Chronic'
p1455
S'Kidney Neoplasms'
p1456
S'Kidney Papillary Necrosis'
p1457
S'Kidney Tubular Necrosis, Acute'
p1458
S'Polycystic Kidney Diseases'
p1459
S'Medullary Sponge Kidney'
p1460
S'Menkes Kinky Hair Syndrome'
p1461
S'Klebsiella Infections'
p1462
S'Klinefelter Syndrome'
p1463
S'Klippel-Feil Syndrome'
p1464
S'Klippel-Trenaunay-Weber Syndrome'
p1465
S'Knee Injuries'
p1466
S'Vulvar Lichen Sclerosus'
p1467
S'Krukenberg Tumor'
p1468
S'Kuru'
p1469
S'Kwashiorkor'
p1470
S'Kyasanur Forest Disease'
p1471
S'Kyphosis'
p1472
S'Obstetric Labor Complications'
p1473
S'Obstetric Labor, Premature'
p1474
S'Laboratory Infection'
p1475
S'Labyrinth Diseases'
p1476
S'Labyrinthitis'
p1477
S'Lacrimal Apparatus Diseases'
p1478
S'Lacrimal Duct Obstruction'
p1479
S'Lactation Disorders'
p1480
S'Lactose Intolerance'
p1481
S'Lameness, Animal'
p1482
S'Language Development Disorders'
p1483
S'Language Disorders'
p1484
S'Larva Migrans'
p1485
S'Larva Migrans, Visceral'
p1486
S'Laryngeal Diseases'
p1487
S'Laryngeal Edema'
p1488
S'Laryngeal Neoplasms'
p1489
S'Laryngismus'
p1490
S'Laryngitis'
p1491
S'Laryngostenosis'
p1492
S'Lassa Fever'
p1493
S'Lathyrism'
p1494
S'Laurence-Moon Syndrome'
p1495
S'Lead Poisoning'
p1496
S'Learning Disorders'
p1497
S'Lecithin Acyltransferase Deficiency'
p1498
S'Leg Dermatoses'
p1499
S'Leg Injuries'
p1500
S'Leg Length Inequality'
p1501
S'Leg Ulcer'
p1502
S'Legg-Calve-Perthes Disease'
p1503
S'Legionellosis'
p1504
S"Legionnaires\\' Disease"
p1505
S'Leigh Disease'
p1506
S'Leiomyoma'
p1507
S'Leiomyosarcoma'
p1508
S'Leishmaniasis'
p1509
S'Leishmaniasis, Mucocutaneous'
p1510
S'Leishmaniasis, Visceral'
p1511
S'Lens Diseases'
p1512
S'Lens Subluxation'
p1513
S'Lentigo'
p1514
S'Leprosy'
p1515
S'Leptospirosis'
p1516
S'Leriche Syndrome'
p1517
S'Lesch-Nyhan Syndrome'
p1518
S'Leukemia'
p1519
S'Leukemia L1210'
p1520
S'Leukemia L5178'
p1521
S'Leukemia P388'
p1522
S'Leukemia, Experimental'
p1523
S'Leukemia, Hairy Cell'
p1524
S'Leukemia, Lymphoid'
p1525
S'Leukemia, Mast-Cell'
p1526
S'Leukemia, Megakaryoblastic, Acute'
p1527
S'Leukemia, Monocytic, Acute'
p1528
S'Leukemia, Myeloid'
p1529
S'Leukemia, Plasma Cell'
p1530
S'Leukemia, Radiation-Induced'
p1531
S'Leukemoid Reaction'
p1532
S'Leukocyte Disorders'
p1533
S'Leukocytosis'
p1534
S'Leukodystrophy, Globoid Cell'
p1535
S'Leukodystrophy, Metachromatic'
p1536
S'Leukoedema, Oral'
p1537
S'Leukoencephalopathy, Progressive Multifocal'
p1538
S'Leukomalacia, Periventricular'
p1539
S'Leukopenia'
p1540
S'Leukoplakia'
p1541
S'Leukoplakia, Oral'
p1542
S'Leukorrhea'
p1543
S'Levocardia'
p1544
S'Leydig Cell Tumor'
p1545
S'Lichen Planus'
p1546
S'Linitis Plastica'
p1547
S'Lip Diseases'
p1548
S'Lip Neoplasms'
p1549
S'Lipid Metabolism, Inborn Errors'
p1550
S'Mucopolysaccharidosis I'
p1551
S'Lipodystrophy'
p1552
S'Whipple Disease'
p1553
S'Lipidoses'
p1554
S'Lipoid Proteinosis of Urbach and Wiethe'
p1555
S'Lipoma'
p1556
S'Lipomatosis'
p1557
S'Lipomatosis, Multiple Symmetrical'
p1558
S'Hyperlipoproteinemia Type I'
p1559
S'Liposarcoma'
p1560
S'Listeriosis'
p1561
S'Liver Abscess'
p1562
S'Liver Abscess, Amebic'
p1563
S'Liver Cirrhosis'
p1564
S'Liver Cirrhosis, Alcoholic'
p1565
S'Liver Cirrhosis, Biliary'
p1566
S'Liver Cirrhosis, Experimental'
p1567
S'Liver Diseases'
p1568
S'Liver Diseases, Alcoholic'
p1569
S'Liver Diseases, Parasitic'
p1570
S'Liver Neoplasms'
p1571
S'Liver Neoplasms, Experimental'
p1572
S'Loiasis'
p1573
S'Long QT Syndrome'
p1574
S'Lordosis'
p1575
S'Louping Ill'
p1576
S'Lown-Ganong-Levine Syndrome'
p1577
S"Ludwig\\'s Angina"
p1578
S'Lumpy Skin Disease'
p1579
S'Lung Abscess'
p1580
S'Lung Diseases'
p1581
S'Lung Diseases, Fungal'
p1582
S'Lung Diseases, Obstructive'
p1583
S'Lung Diseases, Parasitic'
p1584
S'Lung Neoplasms'
p1585
S'Lupus Vulgaris'
p1586
S'Lupus Erythematosus, Cutaneous'
p1587
S'Lupus Erythematosus, Discoid'
p1588
S'Lupus Erythematosus, Systemic'
p1589
S'Lupus Nephritis'
p1590
S'Lutembacher Syndrome'
p1591
S'Lyme Disease'
p1592
S'Lymphadenitis'
p1593
S'Lymphangiectasis'
p1594
S'Lymphangiectasis, Intestinal'
p1595
S'Lymphangioma'
p1596
S'Lymphangiomyoma'
p1597
S'Lymphangiosarcoma'
p1598
S'Lymphangitis'
p1599
S'Lymphatic Diseases'
p1600
S'Lymphatic Metastasis'
p1601
S'Lymphedema'
p1602
S'Lymphocele'
p1603
S'Lymphocytic Choriomeningitis'
p1604
S'Lymphocytosis'
p1605
S'Lymphogranuloma Venereum'
p1606
S'Lymphoma'
p1607
S'Lymphoma, Follicular'
p1608
S'Lymphoma, Non-Hodgkin'
p1609
S'Lymphomatoid Granulomatosis'
p1610
S'Lymphopenia'
p1611
S'Lymphoproliferative Disorders'
p1612
S'Waldenstrom Macroglobulinemia'
p1613
S'Macroglossia'
p1614
S'Macrostomia'
p1615
S'Macular Degeneration'
p1616
S'Macular Edema'
p1617
S'Mycetoma'
p1618
S'Magnesium Deficiency'
p1619
S'Malabsorption Syndromes'
p1620
S'Malacoplakia'
p1621
S'Malaria'
p1622
S'Malaria, Avian'
p1623
S'Malignant Carcinoid Syndrome'
p1624
S'Malignant Catarrh'
p1625
S'Malignant Hyperthermia'
p1626
S'Mallory-Weiss Syndrome'
p1627
S'Malocclusion'
p1628
S'Malocclusion, Angle Class I'
p1629
S'Malocclusion, Angle Class II'
p1630
S'Malocclusion, Angle Class III'
p1631
S'Mammary Neoplasms, Experimental'
p1632
S'Mandibular Diseases'
p1633
S'Mandibular Fractures'
p1634
S'Mandibular Injuries'
p1635
S'Mandibular Neoplasms'
p1636
S'Mandibulofacial Dysostosis'
p1637
S'alpha-Mannosidosis'
p1638
S'Mansonelliasis'
p1639
S'Maple Syrup Urine Disease'
p1640
S'Marburg Virus Disease'
p1641
S'Marek Disease'
p1642
S'Marfan Syndrome'
p1643
S'Mastitis'
p1644
S'Mastitis, Bovine'
p1645
S'Mastocytosis'
p1646
S'Mastoiditis'
p1647
S'Maxillary Diseases'
p1648
S'Maxillary Fractures'
p1649
S'Maxillary Neoplasms'
p1650
S'Maxillary Sinus Neoplasms'
p1651
S'Maxillofacial Injuries'
p1652
S'Measles'
p1653
S'Meckel Diverticulum'
p1654
S'Meconium Aspiration Syndrome'
p1655
S'Mediastinal Cyst'
p1656
S'Mediastinal Diseases'
p1657
S'Mediastinal Emphysema'
p1658
S'Mediastinal Neoplasms'
p1659
S'Mediastinitis'
p1660
S'Medulloblastoma'
p1661
S'Megacolon'
p1662
S'Megacolon, Toxic'
p1663
S'Meige Syndrome'
p1664
S'Meigs Syndrome'
p1665
S'Melanoma'
p1666
S'Melanoma, Experimental'
p1667
S'Melanosis'
p1668
S'Melena'
p1669
S'Melioidosis'
p1670
S'Melkersson-Rosenthal Syndrome'
p1671
S'Melorheostosis'
p1672
S'Memory Disorders'
p1673
S'Meniere Disease'
p1674
S'Meningeal Neoplasms'
p1675
S'Meningioma'
p1676
S'Meningism'
p1677
S'Meningitis'
p1678
S'Meningitis, Aseptic'
p1679
S'Meningitis, Haemophilus'
p1680
S'Meningitis, Listeria'
p1681
S'Meningitis, Meningococcal'
p1682
S'Meningitis, Pneumococcal'
p1683
S'Meningitis, Viral'
p1684
S'Meningocele'
p1685
S'Meningococcal Infections'
p1686
S'Meningoencephalitis'
p1687
S'Meningomyelocele'
p1688
S'Menopause, Premature'
p1689
S'Menorrhagia'
p1690
S'Menstruation Disturbances'
p1691
S'Intellectual Disability'
p1692
S'Mercury Poisoning'
p1693
S'Mesenchymoma'
p1694
S'Mesenteric Cyst'
p1695
S'Mesenteric Lymphadenitis'
p1696
S'Mesenteric Vascular Occlusion'
p1697
S'Mesial Movement of Teeth'
p1698
S'Mesonephroma'
p1699
S'Mesothelioma'
p1700
S'Metabolic Diseases'
p1701
S'Metabolism, Inborn Errors'
p1702
S'Metal Metabolism, Inborn Errors'
p1703
S'Metaplasia'
p1704
S'Methemoglobinemia'
p1705
S'Metrorrhagia'
p1706
S'Microcephaly'
p1707
S'Micrognathism'
p1708
S'Microphthalmos'
p1709
S'Microstomia'
p1710
S'Middle Lobe Syndrome'
p1711
S'Migraine Disorders'
p1712
S"Mikulicz\\' Disease"
p1713
S'Miliaria'
p1714
S'Mite Infestations'
p1715
S'Mitral Valve Insufficiency'
p1716
S'Mitral Valve Prolapse'
p1717
S'Mitral Valve Stenosis'
p1718
S'Mixed Connective Tissue Disease'
p1719
S'Adenoma, Pleomorphic'
p1720
S'Molluscum Contagiosum'
p1721
S'Monieziasis'
p1722
S'Monkey Diseases'
p1723
S'Monoclonal Gammopathy of Undetermined Significance'
p1724
S'Monosomy'
p1725
S'Abnormalities, Severe Teratoid'
p1726
S"Monteggia\\'s Fracture"
p1727
S'Morphine Dependence'
p1728
S'Motion Sickness'
p1729
S'Fluorosis, Dental'
p1730
S'Mouth Abnormalities'
p1731
S'Stomatognathic Diseases'
p1732
S'Mouth Breathing'
p1733
S'Mouth Diseases'
p1734
S'Mouth Neoplasms'
p1735
S'Mouth, Edentulous'
p1736
S'Movement Disorders'
p1737
S'Moyamoya Disease'
p1738
S'Mucocele'
p1739
S'Mucocutaneous Lymph Node Syndrome'
p1740
S'Mucolipidoses'
p1741
S'Mucopolysaccharidoses'
p1742
S'Mucopolysaccharidosis III'
p1743
S'Mucopolysaccharidosis IV'
p1744
S'Mucopolysaccharidosis VI'
p1745
S'Mucormycosis'
p1746
S'Multiple Carboxylase Deficiency'
p1747
S'Multiple Myeloma'
p1748
S'Multiple Organ Failure'
p1749
S'Multiple Sclerosis'
p1750
S'Multiple Trauma'
p1751
S'Mumps'
p1752
S'Muscle Cramp'
p1753
S'Muscle Hypertonia'
p1754
S'Muscle Hypotonia'
p1755
S'Muscle Rigidity'
p1756
S'Muscle Spasticity'
p1757
S'Muscular Atrophy'
p1758
S'Muscular Atrophy, Spinal'
p1759
S'Muscular Diseases'
p1760
S'Muscular Dystrophies'
p1761
S'Muscular Dystrophy, Animal'
p1762
S'Musculoskeletal Abnormalities'
p1763
S'Musculoskeletal Diseases'
p1764
S'Mushroom Poisoning'
p1765
S'Mutism'
p1766
S'Myasthenia Gravis'
p1767
S'Mycobacterium Infections'
p1768
S'Mycobacterium Infections, Nontuberculous'
p1769
S'Mycoplasma Infections'
p1770
S'Mycoplasmatales Infections'
p1771
S'Mycoses'
p1772
S'Mycosis Fungoides'
p1773
S'Myelitis'
p1774
S'Myelitis, Transverse'
p1775
S'Myelodysplastic Syndromes'
p1776
S'Myeloproliferative Disorders'
p1777
S'Myiasis'
p1778
S'Cardiomyopathies'
p1779
S'Myocardial Infarction'
p1780
S'Myocarditis'
p1781
S'Myoclonus'
p1782
S'Myoepithelioma'
p1783
S'Myofascial Pain Syndromes'
p1784
S'Myoglobinuria'
p1785
S'Myoma'
p1786
S'Myopia'
p1787
S'Myosarcoma'
p1788
S'Myositis'
p1789
S'Myositis Ossificans'
p1790
S'Myotonia'
p1791
S'Myotonic Dystrophy'
p1792
S'Myotonia Congenita'
p1793
S'Myxedema'
p1794
S'Myxoma'
p1795
S'Myxomatosis, Infectious'
p1796
S'Myxosarcoma'
p1797
S'Nail Diseases'
p1798
S'Nail-Patella Syndrome'
p1799
S'Nails, Ingrown'
p1800
S'Nails, Malformed'
p1801
S'Nairobi Sheep Disease'
p1802
S'Narcolepsy'
p1803
S'Opioid-Related Disorders'
p1804
S'Nasal Polyps'
p1805
S'Nasopharyngeal Diseases'
p1806
S'Nasopharyngeal Neoplasms'
p1807
S'Nasopharyngitis'
p1808
S'Nausea'
p1809
S'Necatoriasis'
p1810
S'Necrobiosis Lipoidica'
p1811
S'Necrosis'
p1812
S'Nelson Syndrome'
p1813
S'Nematode Infections'
p1814
S'Neonatal Abstinence Syndrome'
p1815
S'Congenital, Hereditary, and Neonatal Diseases and Abnormalities'
p1816
S'Neoplastic Cells, Circulating'
p1817
S'Neoplasm Invasiveness'
p1818
S'Neoplasm Metastasis'
p1819
S'Neoplasm Recurrence, Local'
p1820
S'Neoplasm Regression, Spontaneous'
p1821
S'Neoplasm Seeding'
p1822
S'Neoplasms'
p1823
S'Neoplasms by Histologic Type'
p1824
S'Neoplasms by Site'
p1825
S'Neoplasms, Connective Tissue'
p1826
S'Neoplasms, Germ Cell and Embryonal'
p1827
S'Neoplasms, Experimental'
p1828
S'Neoplasms, Glandular and Epithelial'
p1829
S'Neoplasms, Hormone-Dependent'
p1830
S'Multiple Endocrine Neoplasia'
p1831
S'Neoplasms, Multiple Primary'
p1832
S'Neoplasms, Muscle Tissue'
p1833
S'Neoplasms, Nerve Tissue'
p1834
S'Neoplasms, Radiation-Induced'
p1835
S'Neoplasms, Unknown Primary'
p1836
S'Neoplasms, Vascular Tissue'
p1837
S'Paraneoplastic Endocrine Syndromes'
p1838
S'Neoplastic Processes'
p1839
S'Neoplastic Syndromes, Hereditary'
p1840
S'Neovascularization, Pathologic'
p1841
S'Nephritis'
p1842
S'Nephritis, Hereditary'
p1843
S'Nephritis, Interstitial'
p1844
S'Wilms Tumor'
p1845
S'Nephrocalcinosis'
p1846
S'Nephrosclerosis'
p1847
S'Nephrosis'
p1848
S'Nephrosis, Lipoid'
p1849
S'Nephrotic Syndrome'
p1850
S'Nerve Compression Syndromes'
p1851
S'Nerve Degeneration'
p1852
S'Nervous System Malformations'
p1853
S'Nervous System Diseases'
p1854
S'Nervous System Neoplasms'
p1855
S'Neural Tube Defects'
p1856
S'Neuralgia'
p1857
S'Neurilemmoma'
p1858
S'Neuritis'
p1859
S'Neuritis, Autoimmune, Experimental'
p1860
S'Neuroblastoma'
p1861
S'Neurodermatitis'
p1862
S'Neurofibroma'
p1863
S'Neurofibromatosis 1'
p1864
S'Neuroleptic Malignant Syndrome'
p1865
S'Neurologic Manifestations'
p1866
S'Neuroma'
p1867
S'Neuroma, Acoustic'
p1868
S'Neuromuscular Diseases'
p1869
S'Neuromyelitis Optica'
p1870
S'Neuronal Ceroid-Lipofuscinoses'
p1871
S'Hereditary Sensory and Autonomic Neuropathies'
p1872
S'Neurosyphilis'
p1873
S'Neutropenia'
p1874
S'Nevus'
p1875
S'Nevus of Ota'
p1876
S'Nevus, Pigmented'
p1877
S'Newcastle Disease'
p1878
S'Niemann-Pick Diseases'
p1879
S'Nocardia Infections'
p1880
S'Noma'
p1881
S'Nondisjunction, Genetic'
p1882
S'Nonodontogenic Cysts'
p1883
S'Noonan Syndrome'
p1884
S'Nose Deformities, Acquired'
p1885
S'Nose Diseases'
p1886
S'Nose Neoplasms'
p1887
S'Nutrition Disorders'
p1888
S'Nutritional and Metabolic Diseases'
p1889
S'Night Blindness'
p1890
S'Nystagmus, Pathologic'
p1891
S'Obesity'
p1892
S'Obesity, Morbid'
p1893
S'Dermatitis, Occupational'
p1894
S'Occupational Diseases'
p1895
S'Ochronosis'
p1896
S'Ocular Hypertension'
p1897
S'Oculocerebrorenal Syndrome'
p1898
S'Odontogenic Cysts'
p1899
S'Odontogenic Tumors'
p1900
S'Odontoma'
p1901
S'Oesophagostomiasis'
p1902
S'Oligodendroglioma'
p1903
S'Oligomenorrhea'
p1904
S'Oligospermia'
p1905
S'Oliguria'
p1906
S'Olivopontocerebellar Atrophies'
p1907
S'Onchocerciasis'
p1908
S'Oophoritis'
p1909
S'Endophthalmitis'
p1910
S'Ophthalmia Neonatorum'
p1911
S'Ophthalmia, Sympathetic'
p1912
S'Ophthalmoplegia'
p1913
S'Opisthorchiasis'
p1914
S'Opportunistic Infections'
p1915
S'Optic Atrophy'
p1916
S'Optic Nerve Diseases'
p1917
S'Optic Neuritis'
p1918
S'Oral Manifestations'
p1919
S'Oral Submucous Fibrosis'
p1920
S'Orbital Diseases'
p1921
S'Orbital Fractures'
p1922
S'Orbital Neoplasms'
p1923
S'Orchitis'
p1924
S'Psittacosis'
p1925
S'Oroantral Fistula'
p1926
S'Orofaciodigital Syndromes'
p1927
S'Oropharyngeal Neoplasms'
p1928
S'Orthomyxoviridae Infections'
p1929
S'Ossification, Heterotopic'
p1930
S'Osteitis'
p1931
S'Osteitis Deformans'
p1932
S'Osteitis Fibrosa Cystica'
p1933
S'Osteoarthritis'
p1934
S'Osteoarthropathy, Primary Hypertrophic'
p1935
S'Osteoarthropathy, Secondary Hypertrophic'
p1936
S'Osteochondritis'
p1937
S'Osteochondritis Dissecans'
p1938
S'Osteochondrodysplasias'
p1939
S'Osteogenesis Imperfecta'
p1940
S'Osteolysis'
p1941
S'Osteolysis, Essential'
p1942
S'Osteoma'
p1943
S'Osteoma, Osteoid'
p1944
S'Osteomalacia'
p1945
S'Osteomyelitis'
p1946
S'Osteonecrosis'
p1947
S'Osteopetrosis'
p1948
S'Osteopoikilosis'
p1949
S'Osteoporosis'
p1950
S'Osteoradionecrosis'
p1951
S'Osteosclerosis'
p1952
S'Ostertagiasis'
p1953
S'Otitis'
p1954
S'Otitis Externa'
p1955
S'Otitis Media'
p1956
S'Otitis Media with Effusion'
p1957
S'Otitis Media, Suppurative'
p1958
S'Otorhinolaryngologic Diseases'
p1959
S'Otorhinolaryngologic Neoplasms'
p1960
S'Otosclerosis'
p1961
S'Ovarian Cysts'
p1962
S'Ovarian Diseases'
p1963
S'Ovarian Neoplasms'
p1964
S'Oxyuriasis'
p1965
S"Paget\\'s Disease, Mammary"
p1966
S'Paget Disease, Extramammary'
p1967
S'Pain'
p1968
S'Pain, Intractable'
p1969
S'Pain, Postoperative'
p1970
S'Palatal Neoplasms'
p1971
S'Pallor'
p1972
S'Pancoast Syndrome'
p1973
S'Pancreatic Cyst'
p1974
S'Pancreatic Diseases'
p1975
S'Pancreatic Fistula'
p1976
S'Exocrine Pancreatic Insufficiency'
p1977
S'Pancreatic Neoplasms'
p1978
S'Pancreatic Pseudocyst'
p1979
S'Pancreatitis'
p1980
S'Pancytopenia'
p1981
S'Panniculitis, Nodular Nonsuppurative'
p1982
S'Panophthalmitis'
p1983
S'Papilledema'
p1984
S'Papilloma'
p1985
S'Papillon-Lefevre Disease'
p1986
S'Phlebotomus Fever'
p1987
S'Paracoccidioidomycosis'
p1988
S'Paraganglioma'
p1989
S'Paraganglioma, Extra-Adrenal'
p1990
S'Paragonimiasis'
p1991
S'Parakeratosis'
p1992
S'Paralysis'
p1993
S'Bulbar Palsy, Progressive'
p1994
S'Paralyses, Familial Periodic'
p1995
S'Paralysis, Obstetric'
p1996
S'Parametritis'
p1997
S'Respirovirus Infections'
p1998
S'Paranasal Sinus Diseases'
p1999
S'Paranasal Sinus Neoplasms'
p2000
S'Paraneoplastic Syndromes'
p2001
S'Paraphimosis'
p2002
S'Paraplegia'
p2003
S'Paraproteinemias'
p2004
S'Parapsoriasis'
p2005
S'Parasitic Diseases'
p2006
S'Parasitic Diseases, Animal'
p2007
S'Parathyroid Diseases'
p2008
S'Parathyroid Neoplasms'
p2009
S'Paratuberculosis'
p2010
S'Paratyphoid Fever'
p2011
S'Paresis'
p2012
S'Paresthesia'
p2013
S'Parkinson Disease'
p2014
S'Parkinson Disease, Postencephalitic'
p2015
S'Parkinson Disease, Secondary'
p2016
S'Paronychia'
p2017
S'Parotid Diseases'
p2018
S'Parotid Neoplasms'
p2019
S'Parotitis'
p2020
S'Parovarian Cyst'
p2021
S'Parturient Paresis'
p2022
S'Parvoviridae Infections'
p2023
S'Pasteurella Infections'
p2024
S'Pathologic Processes'
p2025
S'Lice Infestations'
p2026
S'Pelger-Huet Anomaly'
p2027
S'Peliosis Hepatis'
p2028
S'Pellagra'
p2029
S'Pelvic Neoplasms'
p2030
S'Pemphigoid, Benign Mucous Membrane'
p2031
S'Pemphigoid, Bullous'
p2032
S'Pemphigus'
p2033
S'Penile Diseases'
p2034
S'Penile Induration'
p2035
S'Penile Neoplasms'
p2036
S'Peptic Ulcer'
p2037
S'Peptic Ulcer Hemorrhage'
p2038
S'Peptic Ulcer Perforation'
p2039
S'Perceptual Disorders'
p2040
S'Periapical Abscess'
p2041
S'Periapical Diseases'
p2042
S'Periapical Granuloma'
p2043
S'Periapical Periodontitis'
p2044
S'Polyarteritis Nodosa'
p2045
S'Periarthritis'
p2046
S'Pericardial Effusion'
p2047
S'Pericarditis'
p2048
S'Pericarditis, Constrictive'
p2049
S'Pericarditis, Tuberculous'
p2050
S'Pericoronitis'
p2051
S'Perinephritis'
p2052
S'Familial Mediterranean Fever'
p2053
S'Periodontal Abscess'
p2054
S'Periodontal Cyst'
p2055
S'Periodontal Diseases'
p2056
S'Periodontal Pocket'
p2057
S'Periodontitis'
p2058
S'Aggressive Periodontitis'
p2059
S'Periostitis'
p2060
S'Peripheral Nervous System Diseases'
p2061
S'Peripheral Nervous System Neoplasms'
p2062
S'Peritoneal Diseases'
p2063
S'Peritoneal Neoplasms'
p2064
S'Peritonitis'
p2065
S'Persistent Fetal Circulation Syndrome'
p2066
S'Peutz-Jeghers Syndrome'
p2067
S'Phagocyte Bactericidal Dysfunction'
p2068
S'Phantom Limb'
p2069
S'Pharyngeal Diseases'
p2070
S'Pharyngeal Neoplasms'
p2071
S'Pharyngitis'
p2072
S'Phencyclidine Abuse'
p2073
S'Phenylketonurias'
p2074
S'Pheochromocytoma'
p2075
S'Philadelphia Chromosome'
p2076
S'Phimosis'
p2077
S'Phlebitis'
p2078
S'Phosphorus Metabolism Disorders'
p2079
S'Photosensitivity Disorders'
p2080
S'Obesity Hypoventilation Syndrome'
p2081
S'Picornaviridae Infections'
p2082
S'Piedra'
p2083
S'Pierre Robin Syndrome'
p2084
S'Pigmentation Disorders'
p2085
S'Pilonidal Sinus'
p2086
S'Pinealoma'
p2087
S'Pinta'
p2088
S'Pituitary Apoplexy'
p2089
S'Pituitary Diseases'
p2090
S'Pituitary Neoplasms'
p2091
S'Pityriasis'
p2092
S'Pityriasis Rubra Pilaris'
p2093
S'Placenta Accreta'
p2094
S'Placenta Diseases'
p2095
S'Placenta Previa'
p2096
S'Placental Insufficiency'
p2097
S'Plague'
p2098
S'Plant Poisoning'
p2099
S'Plasmacytoma'
p2100
S'Platelet Storage Pool Deficiency'
p2101
S'Platybasia'
p2102
S'Pleural Diseases'
p2103
S'Pleural Effusion'
p2104
S'Pleural Neoplasms'
p2105
S'Pleurisy'
p2106
S'Pleurodynia, Epidemic'
p2107
S'Pleuropneumonia'
p2108
S'Pleuropneumonia, Contagious'
p2109
S'Plummer-Vinson Syndrome'
p2110
S'Pneumatosis Cystoides Intestinalis'
p2111
S'Pneumocephalus'
p2112
S'Pneumococcal Infections'
p2113
S'Pneumoconiosis'
p2114
S'Pneumonia'
p2115
S'Pneumonia, Aspiration'
p2116
S'Pneumonia, Atypical Interstitial, of Cattle'
p2117
S'Pneumonia, Lipid'
p2118
S'Pneumonia, Pneumococcal'
p2119
S'Pneumonia, Mycoplasma'
p2120
S'Pneumonia, Pneumocystis'
p2121
S'Pneumonia, Progressive Interstitial, of Sheep'
p2122
S'Pneumonia, Rickettsial'
p2123
S'Pneumonia, Staphylococcal'
p2124
S'Pneumonia, Viral'
p2125
S'Pneumopericardium'
p2126
S'Pneumoperitoneum'
p2127
S'Pneumothorax'
p2128
S'Rothmund-Thomson Syndrome'
p2129
S'Dermatitis, Toxicodendron'
p2130
S'Poisoning'
p2131
S'Poland Syndrome'
p2132
S'Poliomyelitis'
p2133
S'Poliomyelitis, Bulbar'
p2134
S'Polychondritis, Relapsing'
p2135
S'Polycystic Ovary Syndrome'
p2136
S'Polycythemia'
p2137
S'Polycythemia Vera'
p2138
S'Polymyalgia Rheumatica'
p2139
S'Polyneuropathies'
p2140
S'Polyploidy'
p2141
S'Adenomatous Polyposis Coli'
p2142
S'Polyps'
p2143
S'Polyradiculopathy'
p2144
S'Polyradiculoneuropathy'
p2145
S'Polyuria'
p2146
S'Eczema, Dyshidrotic'
p2147
S'Popliteal Cyst'
p2148
S'Porphyrias'
p2149
S'Postgastrectomy Syndromes'
p2150
S'Postmortem Changes'
p2151
S'Postoperative Complications'
p2152
S'Postpericardiotomy Syndrome'
p2153
S'Postphlebitic Syndrome'
p2154
S'Potassium Deficiency'
p2155
S'Poultry Diseases'
p2156
S'Poxviridae Infections'
p2157
S'Prader-Willi Syndrome'
p2158
S'Pre-Eclampsia'
p2159
S'Pre-Excitation Syndromes'
p2160
S'Pre-Excitation, Mahaim-Type'
p2161
S'Precancerous Conditions'
p2162
S'Prediabetic State'
p2163
S'Pregnancy Complications'
p2164
S'Pregnancy Complications, Cardiovascular'
p2165
S'Pregnancy Complications, Hematologic'
p2166
S'Pregnancy Complications, Infectious'
p2167
S'Pregnancy Complications, Neoplastic'
p2168
S'Pregnancy in Diabetics'
p2169
S'Pregnancy, Abdominal'
p2170
S'Pregnancy, Ectopic'
p2171
S'Pregnancy, Prolonged'
p2172
S'Pregnancy, Tubal'
p2173
S'Preleukemia'
p2174
S'Premenstrual Syndrome'
p2175
S'Prenatal Exposure Delayed Effects'
p2176
S'Presbycusis'
p2177
S'Presbyopia'
p2178
S'Priapism'
p2179
S'Proctitis'
p2180
S'Proctocolitis'
p2181
S'Progeria'
p2182
S'Prognathism'
p2183
S'Prolapse'
p2184
S'Prostatic Diseases'
p2185
S'Prostatic Hyperplasia'
p2186
S'Prostatic Neoplasms'
p2187
S'Prostatitis'
p2188
S'Prosthesis Failure'
p2189
S'Protein Deficiency'
p2190
S'Protein-Energy Malnutrition'
p2191
S'Protein-Losing Enteropathies'
p2192
S'Proteinuria'
p2193
S'Proteus Infections'
p2194
S'Protozoan Infections'
p2195
S'Protozoan Infections, Animal'
p2196
S'Prune Belly Syndrome'
p2197
S'Prurigo'
p2198
S'Pruritus'
p2199
S'Pruritus Ani'
p2200
S'Pruritus Vulvae'
p2201
S'Pseudarthrosis'
p2202
S'Pseudohypoaldosteronism'
p2203
S'Pseudohypoparathyroidism'
p2204
S'Pseudomonas Infections'
p2205
S'Pseudomyxoma Peritonei'
p2206
S'Pseudopseudohypoparathyroidism'
p2207
S'Pseudorabies'
p2208
S'Pseudotumor Cerebri'
p2209
S'Pseudoxanthoma Elasticum'
p2210
S'Psoriasis'
p2211
S'Psychomotor Agitation'
p2212
S'Psychomotor Disorders'
p2213
S'Psychophysiologic Disorders'
p2214
S'Psychoses, Alcoholic'
p2215
S'Psychoses, Substance-Induced'
p2216
S'Pterygium'
p2217
S'Puberty, Delayed'
p2218
S'Puberty, Precocious'
p2219
S'Puerperal Disorders'
p2220
S'Puerperal Infection'
p2221
S'Pulmonary Adenomatosis, Ovine'
p2222
S'Pulmonary Alveolar Proteinosis'
p2223
S'Pulmonary Edema'
p2224
S'Pulmonary Embolism'
p2225
S'Pulmonary Emphysema'
p2226
S'Pulmonary Eosinophilia'
p2227
S'Pulmonary Fibrosis'
p2228
S'Pulmonary Heart Disease'
p2229
S'Pulmonary Subvalvular Stenosis'
p2230
S'Pulmonary Valve Insufficiency'
p2231
S'Pulmonary Valve Stenosis'
p2232
S'Pulmonary Veno-Occlusive Disease'
p2233
S'Pulpitis'
p2234
S'Pupil Disorders'
p2235
S'Purine-Pyrimidine Metabolism, Inborn Errors'
p2236
S'Purpura'
p2237
S'Purpura, Hyperglobulinemic'
p2238
S'Purpura, Schoenlein-Henoch'
p2239
S'Purpura, Thrombocytopenic'
p2240
S'Purpura, Thrombotic Thrombocytopenic'
p2241
S'Pyelitis'
p2242
S'Pyelonephritis'
p2243
S'Pyelonephritis, Xanthogranulomatous'
p2244
S'Pyloric Stenosis'
p2245
S'Pyoderma'
p2246
S'Pyuria'
p2247
S'Q Fever'
p2248
S'Quadriplegia'
p2249
S'Rabies'
p2250
S'Radiation Injuries'
p2251
S'Radiation Injuries, Experimental'
p2252
S'Radicular Cyst'
p2253
S'Radiculopathy'
p2254
S'Radiodermatitis'
p2255
S'Radius Fractures'
p2256
S'Ranula'
p2257
S'Rat-Bite Fever'
p2258
S'Raynaud Disease'
p2259
S'Hyperacusis'
p2260
S'Rectal Diseases'
p2261
S'Rectal Fistula'
p2262
S'Rectal Neoplasms'
p2263
S'Rectal Prolapse'
p2264
S'Rectovaginal Fistula'
p2265
S'Recurrence'
p2266
S'Red-Cell Aplasia, Pure'
p2267
S'Reflex Sympathetic Dystrophy'
p2268
S'Reflex, Abnormal'
p2269
S'Refractive Errors'
p2270
S'Refsum Disease'
p2271
S'Relapsing Fever'
p2272
S'Remission, Spontaneous'
p2273
S'Renal Artery Obstruction'
p2274
S'Renal Osteodystrophy'
p2275
S'Reoviridae Infections'
p2276
S'Cumulative Trauma Disorders'
p2277
S'Respiration Disorders'
p2278
S'Respiratory Distress Syndrome, Newborn'
p2279
S'Respiratory Distress Syndrome, Adult'
p2280
S'Respiratory Hypersensitivity'
p2281
S'Respiratory Insufficiency'
p2282
S'Respiratory Paralysis'
p2283
S'Respiratory Sounds'
p2284
S'Respiratory Tract Diseases'
p2285
S'Respiratory Tract Infections'
p2286
S'Respiratory Tract Neoplasms'
p2287
S'Restless Legs Syndrome'
p2288
S'Retinal Degeneration'
p2289
S'Retinal Detachment'
p2290
S'Retinal Diseases'
p2291
S'Retinal Hemorrhage'
p2292
S'Retinal Perforations'
p2293
S'Retinal Vein Occlusion'
p2294
S'Retinitis'
p2295
S'Retinitis Pigmentosa'
p2296
S'Retinoblastoma'
p2297
S'Retinopathy of Prematurity'
p2298
S'Retrocochlear Diseases'
p2299
S'Retrograde Degeneration'
p2300
S'Retroperitoneal Fibrosis'
p2301
S'Retroperitoneal Neoplasms'
p2302
S'Retropneumoperitoneum'
p2303
S'Retroviridae Infections'
p2304
S'Reye Syndrome'
p2305
S'Rh Isoimmunization'
p2306
S'Rhabdomyolysis'
p2307
S'Rhabdomyoma'
p2308
S'Rhabdomyosarcoma'
p2309
S'Rheumatic Fever'
p2310
S'Rheumatic Heart Disease'
p2311
S'Rheumatic Nodule'
p2312
S'Rheumatic Diseases'
p2313
S'Rheumatoid Nodule'
p2314
S'Rhinitis'
p2315
S'Rhinitis, Allergic, Perennial'
p2316
S'Rhinitis, Atrophic'
p2317
S'Rhinitis, Vasomotor'
p2318
S'Rhinophyma'
p2319
S'Rhinoscleroma'
p2320
S'Rhinosporidiosis'
p2321
S'Rib Fractures'
p2322
S'Riboflavin Deficiency'
p2323
S'Rickets'
p2324
S'Rickettsia Infections'
p2325
S'Rickettsiaceae Infections'
p2326
S'Rift Valley Fever'
p2327
S'Rigor Mortis'
p2328
S'Rinderpest'
p2329
S'Ring Chromosomes'
p2330
S'RNA Virus Infections'
p2331
S'Rocky Mountain Spotted Fever'
p2332
S'Rodent Diseases'
p2333
S'Root Resorption'
p2334
S'Rosacea'
p2335
S'Rotavirus Infections'
p2336
S'Rubella'
p2337
S'Rubella Syndrome, Congenital'
p2338
S'Rubinstein-Taybi Syndrome'
p2339
S'Rupture'
p2340
S'Rupture, Spontaneous'
p2341
S'Salivary Duct Calculi'
p2342
S'Salivary Gland Diseases'
p2343
S'Salivary Gland Fistula'
p2344
S'Salivary Gland Neoplasms'
p2345
S'Salmonella Food Poisoning'
p2346
S'Salmonella Infections'
p2347
S'Salmonella Infections, Animal'
p2348
S'Salpingitis'
p2349
S'Sandhoff Disease'
p2350
S'Sarcoidosis'
p2351
S'Sarcoma'
p2352
S'Sarcoma 180'
p2353
S'Sarcoma 37'
p2354
S'Sarcoma, Ewing'
p2355
S'Sarcoma, Experimental'
p2356
S'Sarcoma, Kaposi'
p2357
S'Mast-Cell Sarcoma'
p2358
S'Osteosarcoma'
p2359
S'Sarcoma, Yoshida'
p2360
S'Sarcocystosis'
p2361
S'Scabies'
p2362
S'Scalp Dermatoses'
p2363
S'Scarlet Fever'
p2364
S'Scheuermann Disease'
p2365
S'Schistosomiasis'
p2366
S'Schistosomiasis haematobia'
p2367
S'Schistosomiasis japonica'
p2368
S'Schistosomiasis mansoni'
p2369
S'Sciatica'
p2370
S'Scimitar Syndrome'
p2371
S'Scleredema Adultorum'
p2372
S'Sclerema Neonatorum'
p2373
S'Scleroderma, Localized'
p2374
S'Scleroderma, Systemic'
p2375
S'Sclerosis'
p2376
S'Scoliosis'
p2377
S'Scotoma'
p2378
S'Scrapie'
p2379
S'Screw Worm Infection'
p2380
S'Scrub Typhus'
p2381
S'Scurvy'
p2382
S'Sea-Blue Histiocyte Syndrome'
p2383
S'Sebaceous Gland Diseases'
p2384
S'Sebaceous Gland Neoplasms'
p2385
S'Dermatitis, Seborrheic'
p2386
S'Seizures'
p2387
S'Self Mutilation'
p2388
S'Sensation Disorders'
p2389
S'Serositis'
p2390
S'Sertoli Cell Tumor'
p2391
S'Serum Sickness'
p2392
S'Setariasis'
p2393
S'Sex Chromosome Aberrations'
p2394
S'Disorders of Sex Development'
p2395
S'Sexual Dysfunction, Physiological'
p2396
S'Sexually Transmitted Diseases'
p2397
S'Sezary Syndrome'
p2398
S'Sheep Diseases'
p2399
S'Pasteurellosis, Pneumonic'
p2400
S'Shock'
p2401
S'Shock, Cardiogenic'
p2402
S'Shock, Hemorrhagic'
p2403
S'Shock, Septic'
p2404
S'Shock, Surgical'
p2405
S'Shock, Traumatic'
p2406
S'Short Bowel Syndrome'
p2407
S'Short Rib-Polydactyly Syndrome'
p2408
S'Shoulder Dislocation'
p2409
S'Shoulder Fractures'
p2410
S'Shwartzman Phenomenon'
p2411
S'Shy-Drager Syndrome'
p2412
S'Sialadenitis'
p2413
S'Sialometaplasia, Necrotizing'
p2414
S'Sialorrhea'
p2415
S'Sick Sinus Syndrome'
p2416
S'Sickle Cell Trait'
p2417
S'Siderosis'
p2418
S'Sigmoid Diseases'
p2419
S'Sigmoid Neoplasms'
p2420
S'Signs and Symptoms'
p2421
S'Signs and Symptoms, Digestive'
p2422
S'Signs and Symptoms, Respiratory'
p2423
S'Silicosis'
p2424
S'Silicotuberculosis'
p2425
S"Silo Filler\\'s Disease"
p2426
S'Sinoatrial Block'
p2427
S'Sinus Thrombosis, Intracranial'
p2428
S'Sinusitis'
p2429
S'Situs Inversus'
p2430
S"Sjogren\\'s Syndrome"
p2431
S'Skin Abnormalities'
p2432
S'Skin Diseases'
p2433
S'Skin Diseases, Vesiculobullous'
p2434
S'Skin Diseases, Genetic'
p2435
S'Skin Diseases, Infectious'
p2436
S'Skin Diseases, Metabolic'
p2437
S'Skin Diseases, Parasitic'
p2438
S'Skin Manifestations'
p2439
S'Skin Neoplasms'
p2440
S'Skin Ulcer'
p2441
S'Skull Fractures'
p2442
S'Skull Neoplasms'
p2443
S'Sleep Apnea Syndromes'
p2444
S'Sleep Deprivation'
p2445
S'Sleep Disorders'
p2446
S'Slow Virus Diseases'
p2447
S'Smallpox'
p2448
S'Snake Bites'
p2449
S'Sneezing'
p2450
S'Snoring'
p2451
S'Soft Tissue Neoplasms'
p2452
S'Somatostatinoma'
p2453
S'Somnambulism'
p2454
S'Sparganosis'
p2455
S'Spasm'
p2456
S'Spasms, Infantile'
p2457
S'Speech Disorders'
p2458
S'Spermatic Cord Torsion'
p2459
S'Spermatocele'
p2460
S'Spherocytosis, Hereditary'
p2461
S'Sphingolipidoses'
p2462
S'Spinal Cord Compression'
p2463
S'Spinal Cord Diseases'
p2464
S'Spinal Cord Injuries'
p2465
S'Spinal Cord Neoplasms'
p2466
S'Spinal Curvatures'
p2467
S'Spinal Diseases'
p2468
S'Spinal Injuries'
p2469
S'Spinal Neoplasms'
p2470
S'Spinal Osteophytosis'
p2471
S'Spinal Stenosis'
p2472
S'Spinocerebellar Degenerations'
p2473
S'Spirochaetales Infections'
p2474
S'Splenic Diseases'
p2475
S'Splenic Infarction'
p2476
S'Splenic Neoplasms'
p2477
S'Splenic Rupture'
p2478
S'Splenomegaly'
p2479
S'Spondylitis'
p2480
S'Spondylitis, Ankylosing'
p2481
S'Spondylolisthesis'
p2482
S'Spondylolysis'
p2483
S'Sporotrichosis'
p2484
S'Sprains and Strains'
p2485
S'Sprue, Tropical'
p2486
S'Staphylococcal Food Poisoning'
p2487
S'Staphylococcal Infections'
p2488
S'Staphylococcal Scalded Skin Syndrome'
p2489
S'Staphylococcal Skin Infections'
p2490
S'Starvation'
p2491
S'Status Asthmaticus'
p2492
S'Status Epilepticus'
p2493
S'Steatitis'
p2494
S'Stevens-Johnson Syndrome'
p2495
S'Gastric Dilatation'
p2496
S'Stomach Diseases'
p2497
S'Diverticulum, Stomach'
p2498
S'Stomach Neoplasms'
p2499
S'Stomach Rupture'
p2500
S'Stomach Ulcer'
p2501
S'Stomach Volvulus'
p2502
S'Stomatitis'
p2503
S'Stomatitis, Aphthous'
p2504
S'Stomatitis, Denture'
p2505
S'Stomatitis, Herpetic'
p2506
S'Strabismus'
p2507
S'Streptococcal Infections'
p2508
S'Strongyle Infections, Equine'
p2509
S'Strongyloidiasis'
p2510
S'Struma Ovarii'
p2511
S'Sturge-Weber Syndrome'
p2512
S'Stuttering'
p2513
S'Subacute Sclerosing Panencephalitis'
p2514
S'Subarachnoid Hemorrhage'
p2515
S'Subclavian Steal Syndrome'
p2516
S'Subcutaneous Emphysema'
p2517
S'Subdural Effusion'
p2518
S'Empyema, Subdural'
p2519
S'Sublingual Gland Neoplasms'
p2520
S'Submandibular Gland Diseases'
p2521
S'Submandibular Gland Neoplasms'
p2522
S'Subphrenic Abscess'
p2523
S'Substance Withdrawal Syndrome'
p2524
S'Sudden Infant Death'
p2525
S'Sulfhemoglobinemia'
p2526
S'Sunburn'
p2527
S'Sunstroke'
p2528
S'Superior Mesenteric Artery Syndrome'
p2529
S'Superior Vena Cava Syndrome'
p2530
S'Suppuration'
p2531
S'Supranuclear Palsy, Progressive'
p2532
S'Surgical Wound Dehiscence'
p2533
S'Surgical Wound Infection'
p2534
S'Swayback'
p2535
S'Sweat Gland Diseases'
p2536
S'Sweat Gland Neoplasms'
p2537
S'Sweating, Gustatory'
p2538
S'Swine Diseases'
p2539
S'Swine Erysipelas'
p2540
S'Swine Vesicular Disease'
p2541
S'Pathological Conditions, Signs and Symptoms'
p2542
S'Syncope'
p2543
S'Syndactyly'
p2544
S'Syndrome'
p2545
S'Synostosis'
p2546
S'Synovial Cyst'
p2547
S'Sarcoma, Synovial'
p2548
S'Synovitis'
p2549
S'Synovitis, Pigmented Villonodular'
p2550
S'Syphilis'
p2551
S'Syphilis, Cardiovascular'
p2552
S'Syphilis, Congenital'
p2553
S'Syphilis, Cutaneous'
p2554
S'Syphilis, Latent'
p2555
S'Syringomyelia'
p2556
S'Tabes Dorsalis'
p2557
S'Tachycardia'
p2558
S'Tachycardia, Atrioventricular Nodal Reentry'
p2559
S'Tachycardia, Ectopic Atrial'
p2560
S'Tachycardia, Ectopic Junctional'
p2561
S'Tachycardia, Paroxysmal'
p2562
S'Tachycardia, Sinoatrial Nodal Reentry'
p2563
S'Tachycardia, Sinus'
p2564
S'Tachycardia, Supraventricular'
p2565
S'Taeniasis'
p2566
S'Takayasu Arteritis'
p2567
S'Tangier Disease'
p2568
S'Tarsal Tunnel Syndrome'
p2569
S'Taste Disorders'
p2570
S'Tay-Sachs Disease'
p2571
S'Telangiectasia, Hereditary Hemorrhagic'
p2572
S'Telangiectasis'
p2573
S'Giant Cell Arteritis'
p2574
S'Temporomandibular Joint Disorders'
p2575
S'Temporomandibular Joint Dysfunction Syndrome'
p2576
S'Tendon Injuries'
p2577
S'Tennis Elbow'
p2578
S'Tenosynovitis'
p2579
S'Teratoma'
p2580
S'Testicular Diseases'
p2581
S'Androgen-Insensitivity Syndrome'
p2582
S'Testicular Neoplasms'
p2583
S'Tetanus'
p2584
S'Tetany'
p2585
S'Tetralogy of Fallot'
p2586
S'Thalamic Diseases'
p2587
S'Thalassemia'
p2588
S'Thanatophoric Dysplasia'
p2589
S'Thecoma'
p2590
S'Theileriasis'
p2591
S'Thiamine Deficiency'
p2592
S'Thinness'
p2593
S'Thoracic Diseases'
p2594
S'Thoracic Injuries'
p2595
S'Thoracic Neoplasms'
p2596
S'Thoracic Outlet Syndrome'
p2597
S'Thrombasthenia'
p2598
S'Thromboangiitis Obliterans'
p2599
S'Thrombocythemia, Essential'
p2600
S'Thrombocytopenia'
p2601
S'Thrombocytosis'
p2602
S'Thromboembolism'
p2603
S'Thrombophlebitis'
p2604
S'Thrombosis'
p2605
S'Thymoma'
p2606
S'Thymus Hyperplasia'
p2607
S'Thymus Neoplasms'
p2608
S'Thyroglossal Cyst'
p2609
S'Thyroid Crisis'
p2610
S'Thyroid Diseases'
p2611
S'Thyroid Neoplasms'
p2612
S'Thyroiditis'
p2613
S'Thyroiditis, Autoimmune'
p2614
S'Thyroiditis, Subacute'
p2615
S'Thyroiditis, Suppurative'
p2616
S'Thyrotoxicosis'
p2617
S'Tibial Fractures'
p2618
S'Tic Disorders'
p2619
S'Tick Infestations'
p2620
S'Tick Paralysis'
p2621
S'Tick Toxicoses'
p2622
S"Tietze\\'s Syndrome"
p2623
S'Tinea'
p2624
S'Tinea Capitis'
p2625
S'Tinea Favosa'
p2626
S'Tinea Pedis'
p2627
S'Onychomycosis'
p2628
S'Tinea Versicolor'
p2629
S'Tinnitus'
p2630
S'Tobacco Use Disorder'
p2631
S'Togaviridae Infections'
p2632
S'Tongue Diseases'
p2633
S'Tongue Neoplasms'
p2634
S'Tongue, Fissured'
p2635
S'Tongue, Hairy'
p2636
S'Tonsillar Neoplasms'
p2637
S'Tonsillitis'
p2638
S'Tooth Abnormalities'
p2639
S'Tooth Abrasion'
p2640
S'Tooth Discoloration'
p2641
S'Tooth Diseases'
p2642
S'Tooth Erosion'
p2643
S'Tooth Eruption, Ectopic'
p2644
S'Tooth Fractures'
p2645
S'Tooth Avulsion'
p2646
S'Tooth Migration'
p2647
S'Tooth Mobility'
p2648
S'Tooth Resorption'
p2649
S'Tooth, Impacted'
p2650
S'Tooth, Supernumerary'
p2651
S'Tooth, Unerupted'
p2652
S'Toothache'
p2653
S'Torsion Abnormality'
p2654
S'Torticollis'
p2655
S'Toxemia'
p2656
S'Toxocariasis'
p2657
S'Toxoplasmosis'
p2658
S'Toxoplasmosis, Animal'
p2659
S'Toxoplasmosis, Congenital'
p2660
S'Toxoplasmosis, Ocular'
p2661
S'Tracheal Diseases'
p2662
S'Tracheal Neoplasms'
p2663
S'Tracheal Stenosis'
p2664
S'Tracheitis'
p2665
S'Tracheobronchomegaly'
p2666
S'Tracheoesophageal Fistula'
p2667
S'Trachoma'
p2668
S'Translocation, Genetic'
p2669
S'Transposition of Great Vessels'
p2670
S'Trematode Infections'
p2671
S'Tremor'
p2672
S'Trench Fever'
p2673
S'Treponemal Infections'
p2674
S'Trichinellosis'
p2675
S'Trichomonas Infections'
p2676
S'Trichomonas Vaginitis'
p2677
S'Trichostrongyloidiasis'
p2678
S'Trichostrongylosis'
p2679
S'Trichuriasis'
p2680
S'Tricuspid Valve Insufficiency'
p2681
S'Tricuspid Valve Prolapse'
p2682
S'Tricuspid Valve Stenosis'
p2683
S'Trigeminal Neuralgia'
p2684
S'Trilogy of Fallot'
p2685
S'Trismus'
p2686
S'Trisomy'
p2687
S'Trombiculiasis'
p2688
S'Trophoblastic Neoplasms'
p2689
S'Truncus Arteriosus, Persistent'
p2690
S'Trypanosomiasis'
p2691
S'Trypanosomiasis, African'
p2692
S'Trypanosomiasis, Bovine'
p2693
S'Chagas Disease'
p2694
S'Tuberculoma'
p2695
S'Tuberculosis'
p2696
S'Tuberculosis, Avian'
p2697
S'Tuberculosis, Bovine'
p2698
S'Tuberculosis, Cardiovascular'
p2699
S'Tuberculosis, Cutaneous'
p2700
S'Tuberculosis, Endocrine'
p2701
S'Tuberculosis, Female Genital'
p2702
S'Tuberculosis, Gastrointestinal'
p2703
S'Tuberculosis, Hepatic'
p2704
S'Tuberculosis, Laryngeal'
p2705
S'Tuberculosis, Lymph Node'
p2706
S'Tuberculosis, Male Genital'
p2707
S'Tuberculosis, Meningeal'
p2708
S'Tuberculosis, Miliary'
p2709
S'Tuberculosis, Ocular'
p2710
S'Tuberculosis, Oral'
p2711
S'Tuberculosis, Osteoarticular'
p2712
S'Peritonitis, Tuberculous'
p2713
S'Tuberculosis, Pleural'
p2714
S'Tuberculosis, Pulmonary'
p2715
S'Tuberculosis, Renal'
p2716
S'Tuberculosis, Spinal'
p2717
S'Tuberculosis, Splenic'
p2718
S'Tuberculosis, Urogenital'
p2719
S'Tuberous Sclerosis'
p2720
S'Tularemia'
p2721
S'Tumor Virus Infections'
p2722
S'Turner Syndrome'
p2723
S'Twins, Conjoined'
p2724
S'Typhoid Fever'
p2725
S'Typhus, Endemic Flea-Borne'
p2726
S'Typhus, Epidemic Louse-Borne'
p2727
S'Ulcer'
p2728
S'Ulna Fractures'
p2729
S'Unconsciousness'
p2730
S'Urachal Cyst'
p2731
S'Uremia'
p2732
S'Ureteral Calculi'
p2733
S'Ureteral Diseases'
p2734
S'Ureteral Neoplasms'
p2735
S'Ureteral Obstruction'
p2736
S'Ureterocele'
p2737
S'Urethral Diseases'
p2738
S'Urethral Neoplasms'
p2739
S'Urethral Obstruction'
p2740
S'Urethral Stricture'
p2741
S'Urethritis'
p2742
S'Urinary Calculi'
p2743
S'Urinary Fistula'
p2744
S'Urinary Incontinence'
p2745
S'Urinary Incontinence, Stress'
p2746
S'Urinary Tract Infections'
p2747
S'Urination Disorders'
p2748
S'Urogenital Abnormalities'
p2749
S'Urogenital Neoplasms'
p2750
S'Urologic Diseases'
p2751
S'Urologic Neoplasms'
p2752
S'Urticaria'
p2753
S'Urticaria Pigmentosa'
p2754
S'Uterine Diseases'
p2755
S'Uterine Hemorrhage'
p2756
S'Uterine Inertia'
p2757
S'Uterine Neoplasms'
p2758
S'Uterine Perforation'
p2759
S'Uterine Prolapse'
p2760
S'Uterine Rupture'
p2761
S'Uveal Diseases'
p2762
S'Uveal Neoplasms'
p2763
S'Uveitis'
p2764
S'Uveitis, Anterior'
p2765
S'Uveomeningoencephalitic Syndrome'
p2766
S'Uveoparotid Fever'
p2767
S'Vaccinia'
p2768
S'Vaginal Diseases'
p2769
S'Vaginal Fistula'
p2770
S'Vaginal Neoplasms'
p2771
S'Vaginitis'
p2772
S'Varicocele'
p2773
S'Varicose Ulcer'
p2774
S'Varicose Veins'
p2775
S'Vascular Diseases'
p2776
S'Vascular Headaches'
p2777
S'Vasculitis'
p2778
S'Velopharyngeal Insufficiency'
p2779
S'Venereal Tumors, Veterinary'
p2780
S'Venous Insufficiency'
p2781
S'Ventricular Fibrillation'
p2782
S'Ventricular Outflow Obstruction'
p2783
S'Vertebrobasilar Insufficiency'
p2784
S'Vertigo'
p2785
S'Vesico-Ureteral Reflux'
p2786
S'Vesicovaginal Fistula'
p2787
S'Vesicular Exanthema of Swine'
p2788
S'Vibrio Infections'
p2789
S'Viremia'
p2790
S'Virilism'
p2791
S'Virus Diseases'
p2792
S'Visceral Prolapse'
p2793
S'Vision Disorders'
p2794
S'Vitamin A Deficiency'
p2795
S'Vitamin B Deficiency'
p2796
S'Vitamin B 12 Deficiency'
p2797
S'Vitamin D Deficiency'
p2798
S'Vitamin E Deficiency'
p2799
S'Vitamin K Deficiency'
p2800
S'Vitiligo'
p2801
S'Vitreous Hemorrhage'
p2802
S'Vocal Cord Paralysis'
p2803
S'Voice Disorders'
p2804
S'Vomiting'
p2805
S'Vomiting, Anticipatory'
p2806
S'von Willebrand Diseases'
p2807
S'Vulvar Diseases'
p2808
S'Vulvar Neoplasms'
p2809
S'Vulvitis'
p2810
S'Vulvovaginitis'
p2811
S'Waardenburg Syndrome'
p2812
S'Lateral Medullary Syndrome'
p2813
S'Wallerian Degeneration'
p2814
S'Warts'
p2815
S'Water Intoxication'
p2816
S'Water-Electrolyte Imbalance'
p2817
S'Waterhouse-Friderichsen Syndrome'
p2818
S'Wegener Granulomatosis'
p2819
S'Weil Disease'
p2820
S'Spinal Muscular Atrophies of Childhood'
p2821
S'Werner Syndrome'
p2822
S'Wernicke Encephalopathy'
p2823
S'West Nile Fever'
p2824
S'Whiplash Injuries'
p2825
S'White Muscle Disease'
p2826
S'Whooping Cough'
p2827
S'Wiskott-Aldrich Syndrome'
p2828
S"Wissler\\'s Syndrome"
p2829
S'Wolff-Parkinson-White Syndrome'
p2830
S'Wolfram Syndrome'
p2831
S'Wound Infection'
p2832
S'Wounds and Injuries'
p2833
S'Wounds, Gunshot'
p2834
S'Wounds, Nonpenetrating'
p2835
S'Wounds, Penetrating'
p2836
S'Wounds, Stab'
p2837
S'Wrist Injuries'
p2838
S'Xanthogranuloma, Juvenile'
p2839
S'Xanthomatosis'
p2840
S'Xeroderma Pigmentosum'
p2841
S'Xerophthalmia'
p2842
S'Xerostomia'
p2843
S'XYY Karyotype'
p2844
S'Yaws'
p2845
S'Yellow Fever'
p2846
S'Yersinia Infections'
p2847
S'Yersinia pseudotuberculosis Infections'
p2848
S'Zollinger-Ellison Syndrome'
p2849
S'Zoonoses'
p2850
S'Zygomatic Fractures'
p2851
S'Dementia, Vascular'
p2852
S'Esophageal Motility Disorders'
p2853
S'Esophageal Spasm, Diffuse'
p2854
S'Hydrops Fetalis'
p2855
S'Dementia, Multi-Infarct'
p2856
S'Superinfection'
p2857
S'Lightning Injuries'
p2858
S'Supratentorial Neoplasms'
p2859
S'Epidural Neoplasms'
p2860
S'Prolactinoma'
p2861
S'Colorectal Neoplasms'
p2862
S'Infratentorial Neoplasms'
p2863
S'Osteoarthritis, Hip'
p2864
S'Smoke Inhalation Injury'
p2865
S'Cholangitis, Sclerosing'
p2866
S'Arthritis, Gouty'
p2867
S'Zellweger Syndrome'
p2868
S'Inflammatory Bowel Diseases'
p2869
S'Cholesterol Ester Storage Disease'
p2870
S'Hyperostosis, Sternocostoclavicular'
p2871
S'Wolman Disease'
p2872
S'Hypertriglyceridemia'
p2873
S'Sexually Transmitted Diseases, Viral'
p2874
S'Sexually Transmitted Diseases, Bacterial'
p2875
S'Carcinoma, Merkel Cell'
p2876
S'Churg-Strauss Syndrome'
p2877
S'Mycobacterium avium-intracellulare Infection'
p2878
S'Tumor Lysis Syndrome'
p2879
S'Discitis'
p2880
S'Fructose Metabolism, Inborn Errors'
p2881
S'Fructose-1,6-Diphosphatase Deficiency'
p2882
S'Pyruvate Metabolism, Inborn Errors'
p2883
S'Pyruvate Carboxylase Deficiency Disease'
p2884
S'Pyruvate Dehydrogenase Complex Deficiency Disease'
p2885
S'Dry Eye Syndromes'
p2886
S'Vision, Low'
p2887
S'Glaucoma, Neovascular'
p2888
S'Retinal Artery Occlusion'
p2889
S'Child Nutrition Disorders'
p2890
S'Gastrinoma'
p2891
S'Hereditary Sensory and Motor Neuropathy'
p2892
S'Optic Atrophies, Hereditary'
p2893
S'Spastic Paraplegia, Hereditary'
p2894
S'Scleral Diseases'
p2895
S'Scleritis'
p2896
S'Reperfusion Injury'
p2897
S'Myocardial Reperfusion Injury'
p2898
S'Weight Gain'
p2899
S'Weight Loss'
p2900
S'Glomerulonephritis, Membranoproliferative'
p2901
S'Glomerulonephritis, Membranous'
p2902
S'Panniculitis'
p2903
S'Panniculitis, Lupus Erythematosus'
p2904
S'Panniculitis, Peritoneal'
p2905
S'Leprosy, Borderline'
p2906
S'Leprosy, Lepromatous'
p2907
S'Leprosy, Tuberculoid'
p2908
S'Leukemia, B-Cell'
p2909
S'Leukemia, Lymphocytic, Chronic, B-Cell'
p2910
S'Precursor B-Cell Lymphoblastic Leukemia-Lymphoma'
p2911
S'Leukemia, Biphenotypic, Acute'
p2912
S'Leukemia, T-Cell'
p2913
S'Leukemia-Lymphoma, Adult T-Cell'
p2914
S'Leukemia, Prolymphocytic, T-Cell'
p2915
S'Leukemia, Prolymphocytic'
p2916
S'Leukemia, Myelogenous, Chronic, BCR-ABL Positive'
p2917
S'Leukemia, Myeloid, Accelerated Phase'
p2918
S'Leukemia, Myeloid, Chronic-Phase'
p2919
S'Leukemia, Neutrophilic, Chronic'
p2920
S'Leukemia, Myeloid, Acute'
p2921
S'Leukemia, Basophilic, Acute'
p2922
S'Leukemia, Eosinophilic, Acute'
p2923
S'Leukemia, Promyelocytic, Acute'
p2924
S'Leukemia, Myelomonocytic, Chronic'
p2925
S'Leukemia, Myelomonocytic, Acute'
p2926
S'HTLV-I Infections'
p2927
S'HTLV-II Infections'
p2928
S'Paraparesis, Tropical Spastic'
p2929
S'Salivary Gland Calculi'
p2930
S'Renal Tubular Transport, Inborn Errors'
p2931
S'Nasal Obstruction'
p2932
S'Goat Diseases'
p2933
S'Rett Syndrome'
p2934
S'Ethmoid Sinusitis'
p2935
S'Frontal Sinusitis'
p2936
S'Maxillary Sinusitis'
p2937
S'Sphenoid Sinusitis'
p2938
S'AIDS Dementia Complex'
p2939
S'Choledochal Cyst'
p2940
S'Arthritis, Psoriatic'
p2941
S'Hyperostosis'
p2942
S'Retinal Drusen'
p2943
S'Optic Disk Drusen'
p2944
S'Pregnancy Complications, Parasitic'
p2945
S'Cowpox'
p2946
S'Histiocytosis'
p2947
S'Cystic Adenomatoid Malformation of Lung, Congenital'
p2948
S'Histiocytosis, Non-Langerhans-Cell'
p2949
S'Histiocytosis, Sinus'
p2950
S'Respiratory System Abnormalities'
p2951
S'Histiocytic Disorders, Malignant'
p2952
S'Lambert-Eaton Myasthenic Syndrome'
p2953
S'Mycotoxicosis'
p2954
S'HIV Infections'
p2955
S'Osteoporosis, Postmenopausal'
p2956
S'Fatigue Syndrome, Chronic'
p2957
S'Mammary Neoplasms, Animal'
p2958
S'Near Drowning'
p2959
S'Corneal Edema'
p2960
S'Granuloma, Foreign-Body'
p2961
S'Abdominal Pain'
p2962
S'Granuloma, Respiratory Tract'
p2963
S'Fractures, Stress'
p2964
S'Keratoderma, Palmoplantar, Diffuse'
p2965
S'Aniridia'
p2966
S'Eye Diseases, Hereditary'
p2967
S'Erythema Chronicum Migrans'
p2968
S'Retinal Dysplasia'
p2969
S'Choroideremia'
p2970
S'Gyrate Atrophy'
p2971
S'Eye Injuries, Penetrating'
p2972
S'Iris Neoplasms'
p2973
S'Glaucoma, Angle-Closure'
p2974
S'Ocular Hypotension'
p2975
S'Eye Infections'
p2976
S'Eye Infections, Bacterial'
p2977
S'Substance Abuse, Intravenous'
p2978
S'Eye Infections, Fungal'
p2979
S'Eye Infections, Parasitic'
p2980
S'Acanthamoeba Keratitis'
p2981
S'Langer-Giedion Syndrome'
p2982
S'Onchocerciasis, Ocular'
p2983
S'Eye Infections, Viral'
p2984
S'Uveitis, Suppurative'
p2985
S'Osteochondroma'
p2986
S'Cochlear Diseases'
p2987
S'Ocular Motility Disorders'
p2988
S'Vestibular Diseases'
p2989
S'Chondromatosis, Synovial'
p2990
S'Oculomotor Nerve Diseases'
p2991
S'Enophthalmos'
p2992
S'Tonic Pupil'
p2993
S'Anisometropia'
p2994
S'Retinal Neovascularization'
p2995
S'Choroid Diseases'
p2996
S'Iridocyclitis'
p2997
S'Panuveitis'
p2998
S'Uveitis, Posterior'
p2999
S'Uveitis, Intermediate'
p3000
S'Pars Planitis'
p3001
S'Anisocoria'
p3002
S'Miosis'
p3003
S'Mydriasis'
p3004
S'Retinal Necrosis Syndrome, Acute'
p3005
S'Urinary Retention'
p3006
S'Blood Loss, Surgical'
p3007
S'Pleural Effusion, Malignant'
p3008
S'Arachnoid Cysts'
p3009
S'Simian Acquired Immunodeficiency Syndrome'
p3010
S'Gerstmann-Straussler-Scheinker Disease'
p3011
S'Spinal Fractures'
p3012
S'Oligohydramnios'
p3013
S'Epidermolysis Bullosa Acquisita'
p3014
S'Epidermolysis Bullosa Dystrophica'
p3015
S'Epidermolysis Bullosa, Junctional'
p3016
S'Epidermolysis Bullosa Simplex'
p3017
S'Sjogren-Larsson Syndrome'
p3018
S'Ichthyosis Vulgaris'
p3019
S'Ichthyosiform Erythroderma, Congenital'
p3020
S'Ichthyosis, X-Linked'
p3021
S'Albinism, Oculocutaneous'
p3022
S'Piebaldism'
p3023
S'Albinism, Ocular'
p3024
S'Heart Valve Prolapse'
p3025
S'Spinal Dysraphism'
p3026
S'Spina Bifida Occulta'
p3027
S'Spina Bifida Cystica'
p3028
S'Holoprosencephaly'
p3029
S'Digestive System Fistula'
p3030
S'Oral Fistula'
p3031
S'Respiratory Tract Fistula'
p3032
S'Vascular Fistula'
p3033
S'Accelerated Idioventricular Rhythm'
p3034
S'Torsades de Pointes'
p3035
S'Lentivirus Infections'
p3036
S'Feline Acquired Immunodeficiency Syndrome'
p3037
S'Visna'
p3038
S'Murine Acquired Immunodeficiency Syndrome'
p3039
S'Postpoliomyelitis Syndrome'
p3040
S'AIDS-Associated Nephropathy'
p3041
S'Milk Hypersensitivity'
p3042
S'Alveolar Bone Loss'
p3043
S'Smear Layer'
p3044
S'Tooth Loss'
p3045
S'Lymphoma, B-Cell'
p3046
S'Lymphoma, T-Cell'
p3047
S'Lymphoma, Large-Cell, Immunoblastic'
p3048
S'Lymphoma, Large B-Cell, Diffuse'
p3049
S'Lymphoma, T-Cell, Cutaneous'
p3050
S'Lymphoma, T-Cell, Peripheral'
p3051
S'Prosthesis-Related Infections'
p3052
S'Granuloma Annulare'
p3053
S'Sweet Syndrome'
p3054
S'Lysosomal Storage Diseases'
p3055
S'Fungemia'
p3056
S'Bacteremia'
p3057
S'Ovarian Hyperstimulation Syndrome'
p3058
S'Motor Neuron Disease'
p3059
S'Helicobacter Infections'
p3060
S'Lymphoma, AIDS-Related'
p3061
S'Head Injuries, Closed'
p3062
S'Peripheral Vascular Diseases'
p3063
S'Pemphigus, Benign Familial'
p3064
S'Corneal Neovascularization'
p3065
S'Severe Combined Immunodeficiency'
p3066
S'Ankle Injuries'
p3067
S'Neurofibromatosis 2'
p3068
S'Foot Ulcer'
p3069
S'Mucopolysaccharidosis II'
p3070
S'Cardiac Output, High'
p3071
S'Bronchial Hyperreactivity'
p3072
S'Gangliosidosis, GM1'
p3073
S'Mucopolysaccharidosis VII'
p3074
S'Central Nervous System Neoplasms'
p3075
S'Choroid Plexus Neoplasms'
p3076
S'Purpura, Thrombocytopenic, Idiopathic'
p3077
S'Blepharophimosis'
p3078
S'Hidradenitis'
p3079
S'Leukemia, Feline'
p3080
S'Enzootic Bovine Leukosis'
p3081
S'Vaginosis, Bacterial'
p3082
S'Granular Cell Tumor'
p3083
S'Needlestick Injuries'
p3084
S'Eosinophilia-Myalgia Syndrome'
p3085
S'Thyroid Nodule'
p3086
S'Neoplasms, Second Primary'
p3087
S'Critical Illness'
p3088
S'Diabetes, Gestational'
p3089
S'Encephalopathy, Bovine Spongiform'
p3090
S'Primary Ovarian Insufficiency'
p3091
S'Cerebral Amyloid Angiopathy'
p3092
S'Psoas Abscess'
p3093
S'Zenker Diverticulum'
p3094
S'Herpes Zoster Oticus'
p3095
S"Still\\'s Disease, Adult-Onset"
p3096
S'Yin Deficiency'
p3097
S'Yang Deficiency'
p3098
S'Proteus Syndrome'
p3099
S'Pneumocystis Infections'
p3100
S'Empyema, Pleural'
p3101
S'Plasma Cell Granuloma, Pulmonary'
p3102
S'Orbital Pseudotumor'
p3103
S'Erythema Infectiosum'
p3104
S'Antiphospholipid Syndrome'
p3105
S'Alagille Syndrome'
p3106
S'Stiff-Person Syndrome'
p3107
S'Hepatitis E'
p3108
S'Death, Sudden, Cardiac'
p3109
S'Feline Infectious Peritonitis'
p3110
S'Caroli Disease'
p3111
S'Embolism and Thrombosis'
p3112
S'Ciliophora Infections'
p3113
S'Leishmaniasis, Cutaneous'
p3114
S'Leishmaniasis, Diffuse Cutaneous'
p3115
S'Blastocystis Infections'
p3116
S'Malaria, Falciparum'
p3117
S'Malaria, Cerebral'
p3118
S'Malaria, Vivax'
p3119
S'Toxoplasmosis, Cerebral'
p3120
S'Keratitis, Herpetic'
p3121
S'Hypocapnia'
p3122
S'Tuberculoma, Intracranial'
p3123
S'Bacillaceae Infections'
p3124
S'Li-Fraumeni Syndrome'
p3125
S'Bacteroidaceae Infections'
p3126
S'Serratia Infections'
p3127
S'Ureaplasma Infections'
p3128
S'Neisseriaceae Infections'
p3129
S'Pasteurellaceae Infections'
p3130
S'Ehrlichiosis'
p3131
S'POEMS Syndrome'
p3132
S'Microsporidiosis'
p3133
S'Diabetic Ketoacidosis'
p3134
S'Polyendocrinopathies, Autoimmune'
p3135
S'Angiodysplasia'
p3136
S'Endometrial Neoplasms'
p3137
S'Encephalitozoonosis'
p3138
S'Polycystic Kidney, Autosomal Dominant'
p3139
S'Carotid Stenosis'
p3140
S'Gram-Negative Bacterial Infections'
p3141
S'Gram-Positive Bacterial Infections'
p3142
S'Joint Deformities, Acquired'
p3143
S'Angiomatosis, Bacillary'
p3144
S'Arthritis, Reactive'
p3145
S'Meningitis, Cryptococcal'
p3146
S'Meningitis, Bacterial'
p3147
S'Meningitis, Fungal'
p3148
S'Tooth Demineralization'
p3149
S'Epilepsy, Complex Partial'
p3150
S'Epilepsy, Frontal Lobe'
p3151
S'Epilepsia Partialis Continua'
p3152
S'Phenylketonuria, Maternal'
p3153
S'Chalazion'
p3154
S'Polycystic Kidney, Autosomal Recessive'
p3155
S'Common Variable Immunodeficiency'
p3156
S'alpha-Thalassemia'
p3157
S'beta-Thalassemia'
p3158
S'AIDS-Related Opportunistic Infections'
p3159
S'Colitis, Ischemic'
p3160
S'Porphyria, Erythropoietic'
p3161
S'Liver Failure'
p3162
S'Porphyrias, Hepatic'
p3163
S'Prion Diseases'
p3164
S'IgA Deficiency'
p3165
S'IgG Deficiency'
p3166
S'Akathisia, Drug-Induced'
p3167
S'Liver Failure, Acute'
p3168
S'Low Back Pain'
p3169
S'Porphyria, Acute Intermittent'
p3170
S'Porphyria Cutanea Tarda'
p3171
S'Porphyria, Hepatoerythropoietic'
p3172
S'Anisakiasis'
p3173
S'Neoplasms, Post-Traumatic'
p3174
S'Tachycardia, Ventricular'
p3175
S'Adenophorea Infections'
p3176
S'Enoplida Infections'
p3177
S'Secernentea Infections'
p3178
S'Ascaridida Infections'
p3179
S'Skin Diseases, Bacterial'
p3180
S'Skin Diseases, Viral'
p3181
S'Oxyurida Infections'
p3182
S'Rhabditida Infections'
p3183
S'Myocardial Ischemia'
p3184
S'Angelman Syndrome'
p3185
S'Spirurida Infections'
p3186
S'Strongylida Infections'
p3187
S'Root Caries'
p3188
S'Gastric Outlet Obstruction'
p3189
S'Toxascariasis'
p3190
S'Enterobiasis'
p3191
S'Mitochondrial Encephalomyopathies'
p3192
S'Mitochondrial Myopathies'
p3193
S'MELAS Syndrome'
p3194
S'MERRF Syndrome'
p3195
S'Ophthalmoplegia, Chronic Progressive External'
p3196
S'Caliciviridae Infections'
p3197
S'Neurofibromatoses'
p3198
S'Leukemic Infiltration'
p3199
S'Craniomandibular Disorders'
p3200
S'Tick-Borne Diseases'
p3201
S'Polymyositis'
p3202
S'HELLP Syndrome'
p3203
S'Hypertrophy, Left Ventricular'
p3204
S'Hypertrophy, Right Ventricular'
p3205
S'Kallmann Syndrome'
p3206
S'Skin and Connective Tissue Diseases'
p3207
S'Cicatrix, Hypertrophic'
p3208
S'Necrobiotic Disorders'
p3209
S'Skin Diseases, Eczematous'
p3210
S'Skin Diseases, Papulosquamous'
p3211
S'Skin Diseases, Vascular'
p3212
S'Dermatitis, Allergic Contact'
p3213
S'Dermatitis, Irritant'
p3214
S'Dermatitis, Photoallergic'
p3215
S'Dermatitis, Phototoxic'
p3216
S'Acneiform Eruptions'
p3217
S'Hyperkeratosis, Epidermolytic'
p3218
S'Ichthyosis, Lamellar'
p3219
S'Keratosis, Seborrheic'
p3220
S'Hyperpigmentation'
p3221
S'Hypopigmentation'
p3222
S'Hidradenitis Suppurativa'
p3223
S'Porokeratosis'
p3224
S'Pyoderma Gangrenosum'
p3225
S'Lichenoid Eruptions'
p3226
S'Lichen Nitidus'
p3227
S'Pityriasis Lichenoides'
p3228
S'Pityriasis Rosea'
p3229
S'Mucinoses'
p3230
S'Aneurysm, False'
p3231
S'Aneurysm, Ruptured'
p3232
S'Iliac Aneurysm'
p3233
S'Aortic Aneurysm, Abdominal'
p3234
S'Aortic Aneurysm, Thoracic'
p3235
S'Postcholecystectomy Syndrome'
p3236
S'Lung Diseases, Interstitial'
p3237
S'Radiation Pneumonitis'
p3238
S'Sarcoidosis, Pulmonary'
p3239
S'Microvascular Angina'
p3240
S'Focal Epithelial Hyperplasia'
p3241
S'Parasystole'
p3242
S'Cutaneous Fistula'
p3243
S'Hyperandrogenism'
p3244
S'Myelinolysis, Central Pontine'
p3245
S'Kleine-Levin Syndrome'
p3246
S'Neuroectodermal Tumors'
p3247
S'Neuroectodermal Tumor, Melanotic'
p3248
S'Periodontal Attachment Loss'
p3249
S'WAGR Syndrome'
p3250
S'Hypophosphatemia'
p3251
S'CREST Syndrome'
p3252
S'Lichen Planus, Oral'
p3253
S'Hypereosinophilic Syndrome'
p3254
S'Myocardial Stunning'
p3255
S'Cholera Morbus'
p3256
S'Polydactyly'
p3257
S'Soft Tissue Injuries'
p3258
S'Myopathies, Nemaline'
p3259
S'Pelvic Pain'
p3260
S'Embolism, Cholesterol'
p3261
S'Retropharyngeal Abscess'
p3262
S'Community-Acquired Infections'
p3263
S'Diabetic Foot'
p3264
S'Cytomegalovirus Retinitis'
p3265
S'Lymphoma, Large-Cell, Anaplastic'
p3266
S'Lymphomatoid Papulosis'
p3267
S'Leukoplakia, Hairy'
p3268
S'Fractures, Malunited'
p3269
S'Bone Malalignment'
p3270
S'Ulnar Nerve Compression Syndromes'
p3271
S'Amyloid Neuropathies'
p3272
S'Granuloma, Pyogenic'
p3273
S'Furcation Defects'
p3274
S'Bone Cysts, Aneurysmal'
p3275
S'Canavan Disease'
p3276
S'Machado-Joseph Disease'
p3277
S'Limb Deformities, Congenital'
p3278
S'Ossification of Posterior Longitudinal Ligament'
p3279
S'Exfoliation Syndrome'
p3280
S'Splenosis'
p3281
S'Tympanic Membrane Perforation'
p3282
S'Tuberculosis, Multidrug-Resistant'
p3283
S'Odontodysplasia'
p3284
S'Glucose Intolerance'
p3285
S'Endolymphatic Hydrops'
p3286
S'Circoviridae Infections'
p3287
S'Arterivirus Infections'
p3288
S'Birnaviridae Infections'
p3289
S'Torovirus Infections'
p3290
S'Flavivirus Infections'
p3291
S'Flaviviridae Infections'
p3292
S'Pestivirus Infections'
p3293
S'Paramyxoviridae Infections'
p3294
S'Morbillivirus Infections'
p3295
S'Pneumovirus Infections'
p3296
S'Cardiovirus Infections'
p3297
S'Lymphatic Vessel Tumors'
p3298
S'Lymphangioma, Cystic'
p3299
S'Lymphangioleiomyomatosis'
p3300
S'Neoplasms, Complex and Mixed'
p3301
S'Adenomyoma'
p3302
S'Adenosarcoma'
p3303
S'Carcinoma, Adenosquamous'
p3304
S'Hepatoblastoma'
p3305
S'Mixed Tumor, Malignant'
p3306
S'Mixed Tumor, Mesodermal'
p3307
S'Mixed Tumor, Mullerian'
p3308
S'Nephroma, Mesoblastic'
p3309
S'Pulmonary Blastoma'
p3310
S'Sarcoma, Endometrial Stromal'
p3311
S'Neoplasms, Connective and Soft Tissue'
p3312
S'Neoplasms, Adipose Tissue'
p3313
S'Angiolipoma'
p3314
S'Angiomyolipoma'
p3315
S'Liposarcoma, Myxoid'
p3316
S'Myelolipoma'
p3317
S'Chondromatosis'
p3318
S'Chondrosarcoma, Mesenchymal'
p3319
S'Giant Cell Tumor of Bone'
p3320
S'Neoplasms, Bone Tissue'
p3321
S'Fibroma, Ossifying'
p3322
S'Osteoblastoma'
p3323
S'Osteochondromatosis'
p3324
S'Osteosarcoma, Juxtacortical'
p3325
S'Neoplasms, Fibrous Tissue'
p3326
S'Histiocytoma, Benign Fibrous'
p3327
S'Fibroma, Desmoplastic'
p3328
S'Fibromatosis, Abdominal'
p3329
S'Fibromatosis, Aggressive'
p3330
S'Dermatofibrosarcoma'
p3331
S'Myofibromatosis'
p3332
S'Neoplasms, Fibroepithelial'
p3333
S'Fibroadenoma'
p3334
S'Sarcoma, Clear Cell'
p3335
S'Sarcoma, Small Cell'
p3336
S'Angiomyoma'
p3337
S'Leiomyoma, Epithelioid'
p3338
S'Leiomyomatosis'
p3339
S'Rhabdomyosarcoma, Alveolar'
p3340
S'Rhabdomyosarcoma, Embryonal'
p3341
S'Sarcoma, Alveolar Soft Part'
p3342
S'Smooth Muscle Tumor'
p3343
S'Carcinoma, Embryonal'
p3344
S'Germinoma'
p3345
S'Gonadoblastoma'
p3346
S'Seminoma'
p3347
S'Endodermal Sinus Tumor'
p3348
S'Neuroectodermal Tumors, Primitive, Peripheral'
p3349
S'Neuroectodermal Tumors, Primitive'
p3350
S'Teratocarcinoma'
p3351
S'Trophoblastic Tumor, Placental Site'
p3352
S'Adrenocortical Adenoma'
p3353
S'Adenoma, Liver Cell'
p3354
S'Adenoma, Oxyphilic'
p3355
S'Acrospiroma'
p3356
S'Hidrocystoma'
p3357
S'Syringoma'
p3358
S'Adenoma, Villous'
p3359
S'Adenomatoid Tumor'
p3360
S'Adenomatosis, Pulmonary'
p3361
S'Adenomatous Polyps'
p3362
S'Mesothelioma, Cystic'
p3363
S'Adenocarcinoma, Clear Cell'
p3364
S'Adenocarcinoma, Follicular'
p3365
S'Carcinoma, Papillary, Follicular'
p3366
S'Adenocarcinoma, Sebaceous'
p3367
S'Carcinoma, Acinar Cell'
p3368
S'Adrenocortical Carcinoma'
p3369
S'Carcinoma, Endometrioid'
p3370
S'Carcinoma, Ductal, Breast'
p3371
S'Carcinoma, Islet Cell'
p3372
S'Carcinoma, Lobular'
p3373
S'Carcinoma, Medullary'
p3374
S'Carcinoma, Mucoepidermoid'
p3375
S'Carcinoma, Neuroendocrine'
p3376
S'Carcinoma, Signet Ring Cell'
p3377
S'Carcinoma, Skin Appendage'
p3378
S'Cholangiocarcinoma'
p3379
S'Cystadenocarcinoma, Mucinous'
p3380
S'Cystadenocarcinoma, Papillary'
p3381
S'Cystadenocarcinoma, Serous'
p3382
S"Klatskin\\'s Tumor"
p3383
S'Carcinoma, Giant Cell'
p3384
S'Carcinoma, Large Cell'
p3385
S'Carcinoma, Small Cell'
p3386
S'Carcinoma, Verrucous'
p3387
S'Cervical Intraepithelial Neoplasia'
p3388
S'Cystadenoma, Mucinous'
p3389
S'Cystadenoma, Papillary'
p3390
S'Cystadenoma, Serous'
p3391
S'Neoplasms, Adnexal and Skin Appendage'
p3392
S'Neoplasms, Basal Cell'
p3393
S'Pilomatrixoma'
p3394
S'Neoplasms, Cystic, Mucinous, and Serous'
p3395
S'Mucoepidermoid Tumor'
p3396
S'Neoplasms, Ductal, Lobular, and Medullary'
p3397
S'Papilloma, Intraductal'
p3398
S'Neoplasms, Mesothelial'
p3399
S'Neoplasms, Neuroepithelial'
p3400
S'Ganglioglioma'
p3401
S'Esthesioneuroblastoma, Olfactory'
p3402
S'Ganglioneuroblastoma'
p3403
S'Neurocytoma'
p3404
S'Neoplasms, Squamous Cell'
p3405
S'Papilloma, Inverted'
p3406
S'Neoplasms, Gonadal Tissue'
p3407
S'Sertoli-Leydig Cell Tumor'
p3408
S'Luteoma'
p3409
S'Sex Cord-Gonadal Stromal Tumors'
p3410
S'Glioma, Subependymal'
p3411
S'Gliosarcoma'
p3412
S'Nerve Sheath Neoplasms'
p3413
S'Neurofibroma, Plexiform'
p3414
S'Neurofibrosarcoma'
p3415
S'Neurothekeoma'
p3416
S'Angiofibroma'
p3417
S'Hemangioendothelioma, Epithelioid'
p3418
S'Hemangioma, Capillary'
p3419
S'Hemangioblastoma'
p3420
S'Nevi and Melanomas'
p3421
S"Hutchinson\\'s Melanotic Freckle"
p3422
S'Melanoma, Amelanotic'
p3423
S'Nevus, Blue'
p3424
S'Nevus, Intradermal'
p3425
S'Nevus, Spindle Cell'
p3426
S'Nevus, Epithelioid and Spindle Cell'
p3427
S'Odontogenic Cyst, Calcifying'
p3428
S'Rhabdoid Tumor'
p3429
S'T-Lymphocytopenia, Idiopathic CD4-Positive'
p3430
S'Hepadnaviridae Infections'
p3431
S'Coronavirus Infections'
p3432
S'Rhabdoviridae Infections'
p3433
S'Alphavirus Infections'
p3434
S'Rubivirus Infections'
p3435
S'Respiratory Syncytial Virus Infections'
p3436
S'Neuroendocrine Tumors'
p3437
S'Neoplasm, Residual'
p3438
S'Vasculitis, Leukocytoclastic, Cutaneous'
p3439
S'Leukocyte-Adhesion Deficiency Syndrome'
p3440
S'Cardiovascular Abnormalities'
p3441
S'Thyroid Hormone Resistance Syndrome'
p3442
S'Isochromosomes'
p3443
S'Foot Injuries'
p3444
S'Pneumonia, Bacterial'
p3445
S'Primate Diseases'
p3446
S'Ape Diseases'
p3447
S'Cholesteatoma, Middle Ear'
p3448
S'Brown-Sequard Syndrome'
p3449
S'Blue Toe Syndrome'
p3450
S'Lymphoma, B-Cell, Marginal Zone'
p3451
S'Disease Progression'
p3452
S'Protein S Deficiency'
p3453
S'Placenta, Retained'
p3454
S'Persistent Vegetative State'
p3455
S'Lichen Sclerosus et Atrophicus'
p3456
S'Fractures, Comminuted'
p3457
S'Soft Tissue Infections'
p3458
S'Positive-Pressure Respiration, Intrinsic'
p3459
S'Hypokinesia'
p3460
S'Ventricular Dysfunction, Left'
p3461
S'Bone Demineralization, Pathologic'
p3462
S'Space Motion Sickness'
p3463
S'Hyperoxia'
p3464
S'Ventricular Dysfunction, Right'
p3465
S'Diabetes Insipidus, Nephrogenic'
p3466
S'Parasitemia'
p3467
S'Cryptogenic Organizing Pneumonia'
p3468
S'Breast Neoplasms, Male'
p3469
S'Gastroparesis'
p3470
S"King\\'s Evil"
p3471
S'Milk Sickness'
p3472
S'Sweating Sickness'
p3473
S'Vitreoretinopathy, Proliferative'
p3474
S'Pulmonary Atresia'
p3475
S'Hypoplastic Left Heart Syndrome'
p3476
S'Stomatognathic System Abnormalities'
p3477
S'Ventricular Septal Rupture'
p3478
S'Tooth Injuries'
p3479
S'Mononegavirales Infections'
p3480
S'Filoviridae Infections'
p3481
S'Systemic Inflammatory Response Syndrome'
p3482
S'Ventricular Dysfunction'
p3483
S'Multiple Endocrine Neoplasia Type 1'
p3484
S'Arthralgia'
p3485
S'Multiple Chemical Sensitivity'
p3486
S'Hantavirus Infections'
p3487
S'Tension-Type Headache'
p3488
S'Impotence, Vasculogenic'
p3489
S'Abdominal Abscess'
p3490
S'Tricuspid Atresia'
p3491
S'Encephalitis, Viral'
p3492
S'Anemia, Iron-Deficiency'
p3493
S'Hantavirus Pulmonary Syndrome'
p3494
S'Sepsis'
p3495
S'Multiple Endocrine Neoplasia Type 2a'
p3496
S'Multiple Endocrine Neoplasia Type 2b'
p3497
S'Carcinoma, Lewis Lung'
p3498
S'Cystitis, Interstitial'
p3499
S'Sneddon Syndrome'
p3500
S'Environmental Illness'
p3501
S'Sick Building Syndrome'
p3502
S'Ventricular Premature Complexes'
p3503
S'Atrial Premature Complexes'
p3504
S'Heat Stress Disorders'
p3505
S'Heat Stroke'
p3506
S'Aphasia, Conduction'
p3507
S'Landau-Kleffner Syndrome'
p3508
S'Aphasia, Primary Progressive'
p3509
S'Peroxisomal Disorders'
p3510
S'Chondrodysplasia Punctata, Rhizomelic'
p3511
S'Muscle Weakness'
p3512
S'Optic Neuropathy, Ischemic'
p3513
S'Leukostasis'
p3514
S'Persian Gulf Syndrome'
p3515
S'Fournier Gangrene'
p3516
S'Myositis, Inclusion Body'
p3517
S'Williams Syndrome'
p3518
S'Congenital Disorders of Glycosylation'
p3519
S'Muscle Neoplasms'
p3520
S'Vascular Neoplasms'
p3521
S'Bone Marrow Neoplasms'
p3522
S'Prostatic Intraepithelial Neoplasia'
p3523
S'Depression, Postpartum'
p3524
S'HIV Enteropathy'
p3525
S'Facies'
p3526
S'Cafe-au-Lait Spots'
p3527
S'Smith-Lemli-Opitz Syndrome'
p3528
S'Postoperative Hemorrhage'
p3529
S'Fasciitis, Necrotizing'
p3530
S'Burkholderia Infections'
p3531
S'Hemorrhagic Fever, Ebola'
p3532
S'Neuroaxonal Dystrophies'
p3533
S'Iron Metabolism Disorders'
p3534
S'Iron Overload'
p3535
S'Gingival Overgrowth'
p3536
S'Tooth Attrition'
p3537
S'Oral Ulcer'
p3538
S'HIV Wasting Syndrome'
p3539
S'Branchio-Oto-Renal Syndrome'
p3540
S'Wasting Syndrome'
p3541
S'Pancreatitis, Acute Necrotizing'
p3542
S'Skull Base Neoplasms'
p3543
S'Xanthomatosis, Cerebrotendinous'
p3544
S'Epilepsy, Rolandic'
p3545
S'Pseudolymphoma'
p3546
S'Retrobulbar Hemorrhage'
p3547
S'Porcine Reproductive and Respiratory Syndrome'
p3548
S'Embolism, Paradoxical'
p3549
S'Hematologic Neoplasms'
p3550
S'Port-Wine Stain'
p3551
S'Roseolovirus Infections'
p3552
S'Astroviridae Infections'
p3553
S'Rubulavirus Infections'
p3554
S'Endotoxemia'
p3555
S'Pouchitis'
p3556
S'Chromosome Breakage'
p3557
S'Syncope, Vasovagal'
p3558
S'Craniofacial Abnormalities'
p3559
S'Pancreatitis, Alcoholic'
p3560
S'Vaginal Discharge'
p3561
S'Shoulder Impingement Syndrome'
p3562
S'Neck Pain'
p3563
S'Tooth, Nonvital'
p3564
S'Dermatitis, Perioral'
p3565
S'Capillary Leak Syndrome'
p3566
S'Back Injuries'
p3567
S'Lung, Hyperlucent'
p3568
S'Hemifacial Spasm'
p3569
S'Arrhythmogenic Right Ventricular Dysplasia'
p3570
S'Retinal Neoplasms'
p3571
S'Optic Nerve Neoplasms'
p3572
S'Blindness, Cortical'
p3573
S'Multiple System Atrophy'
p3574
S'Hot Flashes'
p3575
S'Intracranial Hypotension'
p3576
S'Intracranial Hypertension'
p3577
S'Aging, Premature'
p3578
S'Pseudophakia'
p3579
S'Dengue Hemorrhagic Fever'
p3580
S'Neurodegenerative Diseases'
p3581
S'Uterine Inversion'
p3582
S'Hepatitis, Autoimmune'
p3583
S'Hepatitis B, Chronic'
p3584
S'Hepatitis C, Chronic'
p3585
S'Hepatitis D, Chronic'
p3586
S'Maxillofacial Abnormalities'
p3587
S'Epiretinal Membrane'
p3588
S'Neck Injuries'
p3589
S'Miller Fisher Syndrome'
p3590
S'Thrombophilia'
p3591
S'Anti-Glomerular Basement Membrane Disease'
p3592
S'Dyskeratosis Congenita'
p3593
S'Schnitzler Syndrome'
p3594
S'alpha 1-Antitrypsin Deficiency'
p3595
S'Neurobehavioral Manifestations'
p3596
S'Substance-Related Disorders'
p3597
S'Amphetamine-Related Disorders'
p3598
S'Cocaine-Related Disorders'
p3599
S'Alcohol-Related Disorders'
p3600
S'Activated Protein C Resistance'
p3601
S'Neurocysticercosis'
p3602
S'Genetic Predisposition to Disease'
p3603
S'Epstein-Barr Virus Infections'
p3604
S'Histiocytic Necrotizing Lymphadenitis'
p3605
S'Rectocele'
p3606
S'Hepatopulmonary Syndrome'
p3607
S'Shoulder Pain'
p3608
S'Neurogenic Inflammation'
p3609
S'Acquired Hyperostosis Syndrome'
p3610
S'Zygomycosis'
p3611
S'Anticipation, Genetic'
p3612
S'Hyperhomocysteinemia'
p3613
S'Gastroschisis'
p3614
S'Lysosomal Storage Diseases, Nervous System'
p3615
S'Hemostatic Disorders'
p3616
S'Gangliosidoses, GM2'
p3617
S'Basal Ganglia Cerebrovascular Disease'
p3618
S'Basal Ganglia Hemorrhage'
p3619
S'Putaminal Hemorrhage'
p3620
S'Coagulation Protein Disorders'
p3621
S'Manganese Poisoning'
p3622
S'Chorea Gravidarum'
p3623
S'Protein C Deficiency'
p3624
S'Antithrombin III Deficiency'
p3625
S'Amino Acid Transport Disorders, Inborn'
p3626
S'Hyperglycinemia, Nonketotic'
p3627
S'Citrullinemia'
p3628
S'Hyperargininemia'
p3629
S'Ornithine Carbamoyltransferase Deficiency Disease'
p3630
S'Carbamoyl-Phosphate Synthase I Deficiency Disease'
p3631
S'Hyperlysinemias'
p3632
S'Tyrosinemias'
p3633
S'Hypersomnolence, Idiopathic'
p3634
S'Sleep Disorders, Circadian Rhythm'
p3635
S'Jet Lag Syndrome'
p3636
S'Sleep Apnea, Obstructive'
p3637
S'Sleep Apnea, Central'
p3638
S'Nocturnal Paroxysmal Dystonia'
p3639
S'Night Terrors'
p3640
S'Sleep Bruxism'
p3641
S'REM Sleep Behavior Disorder'
p3642
S'Sleep Paralysis'
p3643
S'Nocturnal Myoclonus Syndrome'
p3644
S'Myoclonic Epilepsy, Juvenile'
p3645
S'Myoclonic Epilepsies, Progressive'
p3646
S'Lafora Disease'
p3647
S'Unverricht-Lundborg Syndrome'
p3648
S'Epilepsy, Reflex'
p3649
S'Trauma, Nervous System'
p3650
S'Head Injuries, Penetrating'
p3651
S'Intracranial Hemorrhage, Traumatic'
p3652
S'Hematoma, Subdural, Acute'
p3653
S'Hematoma, Subdural, Chronic'
p3654
S'Brain Hemorrhage, Traumatic'
p3655
S'Cerebral Hemorrhage, Traumatic'
p3656
S'Brain Stem Hemorrhage, Traumatic'
p3657
S'Skull Fracture, Depressed'
p3658
S'Skull Fracture, Basilar'
p3659
S'Subarachnoid Hemorrhage, Traumatic'
p3660
S'Coma, Post-Head Injury'
p3661
S'Brain Injury, Chronic'
p3662
S'Cranial Nerve Injuries'
p3663
S'Central Cord Syndrome'
p3664
S'Autonomic Dysreflexia'
p3665
S'Carotid Artery Injuries'
p3666
S'Cerebrovascular Trauma'
p3667
S'Carotid Artery, Internal, Dissection'
p3668
S'Carotid-Cavernous Sinus Fistula'
p3669
S'Vertebral Artery Dissection'
p3670
S'Facial Nerve Injuries'
p3671
S'Optic Nerve Injuries'
p3672
S'Abducens Nerve Injury'
p3673
S'Sagittal Sinus Thrombosis'
p3674
S'Cavernous Sinus Thrombosis'
p3675
S'Lateral Sinus Thrombosis'
p3676
S'Serotonin Syndrome'
p3677
S'Kluver-Bucy Syndrome'
p3678
S'Gait Disorders, Neurologic'
p3679
S'Gait Ataxia'
p3680
S'Gait Apraxia'
p3681
S'Amnesia, Transient Global'
p3682
S'Alexia, Pure'
p3683
S'Prosopagnosia'
p3684
S'Apraxia, Ideomotor'
p3685
S'Encephalomyelitis, Western Equine'
p3686
S'Encephalomyelitis, Eastern Equine'
p3687
S'Infarction, Anterior Cerebral Artery'
p3688
S'Infarction, Middle Cerebral Artery'
p3689
S'Venous Thrombosis'
p3690
S'Postoperative Nausea and Vomiting'
p3691
S'Gastric Antral Vascular Ectasia'
p3692
S'Tooth Ankylosis'
p3693
S'Vitreous Detachment'
p3694
S'Choroidal Neovascularization'
p3695
S'Ventricular Remodeling'
p3696
S'Neurotoxicity Syndromes'
p3697
S'Heavy Metal Poisoning, Nervous System'
p3698
S'Arsenic Poisoning'
p3699
S'Mercury Poisoning, Nervous System'
p3700
S'Lead Poisoning, Nervous System'
p3701
S'Lead Poisoning, Nervous System, Childhood'
p3702
S'Lead Poisoning, Nervous System, Adult'
p3703
S'MPTP Poisoning'
p3704
S'Alcohol-Induced Disorders, Nervous System'
p3705
S'Alcoholic Neuropathy'
p3706
S'Alcohol Withdrawal Seizures'
p3707
S'Heredodegenerative Disorders, Nervous System'
p3708
S'Autoimmune Diseases of the Nervous System'
p3709
S'Guillain-Barre Syndrome'
p3710
S'Polyradiculoneuropathy, Chronic Inflammatory Demyelinating'
p3711
S'Demyelinating Autoimmune Diseases, CNS'
p3712
S'Hereditary Central Nervous System Demyelinating Diseases'
p3713
S'Papilloma, Choroid Plexus'
p3714
S'Vasculitis, Central Nervous System'
p3715
S'Myasthenic Syndromes, Congenital'
p3716
S'Brain Stem Neoplasms'
p3717
S'Intracranial Hemorrhage, Hypertensive'
p3718
S'Intracranial Hemorrhages'
p3719
S'Vasospasm, Intracranial'
p3720
S'Tuberculosis, Central Nervous System'
p3721
S'Central Nervous System Fungal Infections'
p3722
S'Latex Hypersensitivity'
p3723
S'Tics'
p3724
S'Amnesia, Anterograde'
p3725
S'Migraine with Aura'
p3726
S'Migraine without Aura'
p3727
S'Essential Tremor'
p3728
S'Bell Palsy'
p3729
S'Mobius Syndrome'
p3730
S'Tolosa-Hunt Syndrome'
p3731
S'Paraparesis'
p3732
S'Paraparesis, Spastic'
p3733
S'Vestibular Neuronitis'
p3734
S'Optic Nerve Glioma'
p3735
S'Hypertensive Encephalopathy'
p3736
S'Enterocolitis, Necrotizing'
p3737
S'Lithiasis'
p3738
S'Paraneoplastic Syndromes, Nervous System'
p3739
S'Paraneoplastic Cerebellar Degeneration'
p3740
S'Limbic Encephalitis'
p3741
S'Paraneoplastic Polyneuropathy'
p3742
S'Osteoarthritis, Knee'
p3743
S'Pelizaeus-Merzbacher Disease'
p3744
S'Myokymia'
p3745
S'Isaacs Syndrome'
p3746
S'Muscular Dystrophy, Duchenne'
p3747
S'Muscular Dystrophy, Emery-Dreifuss'
p3748
S'Muscular Dystrophy, Facioscapulohumeral'
p3749
S'Nystagmus, Congenital'
p3750
S'Vagus Nerve Diseases'
p3751
S'Mononeuropathies'
p3752
S'Median Neuropathy'
p3753
S'Ulnar Neuropathies'
p3754
S'Radial Neuropathy'
p3755
S'Sciatic Neuropathy'
p3756
S'Peroneal Neuropathies'
p3757
S'Femoral Neuropathy'
p3758
S'Tibial Neuropathy'
p3759
S'Cubital Tunnel Syndrome'
p3760
S'Olfactory Nerve Diseases'
p3761
S'Trochlear Nerve Diseases'
p3762
S'Trigeminal Nerve Diseases'
p3763
S'Abducens Nerve Diseases'
p3764
S'Glossopharyngeal Nerve Diseases'
p3765
S'Accessory Nerve Diseases'
p3766
S'Hypoglossal Nerve Diseases'
p3767
S'Parasomnias'
p3768
S'Neuromuscular Junction Diseases'
p3769
S'Myopathy, Central Core'
p3770
S'Paralysis, Hyperkalemic Periodic'
p3771
S'Hypokalemic Periodic Paralysis'
p3772
S'Brachial Plexus Neuropathies'
p3773
S'Focal Nodular Hyperplasia'
p3774
S'Brain Infarction'
p3775
S'Stroke'
p3776
S'Lymphoma, Mantle-Cell'
p3777
S'Brain Stem Infarctions'
p3778
S'Multiple Sclerosis, Chronic Progressive'
p3779
S'Multiple Sclerosis, Relapsing-Remitting'
p3780
S'Fetal Weight'
p3781
S'Acatalasia'
p3782
S'Myasthenia Gravis, Autoimmune, Experimental'
p3783
S'Nervous System Autoimmune Disease, Experimental'
p3784
S'Parkinsonian Disorders'
p3785
S'Brain Diseases, Metabolic, Inborn'
p3786
S'Alcohol-Induced Disorders'
p3787
S'Neurocutaneous Syndromes'
p3788
S'Spinocerebellar Ataxias'
p3789
S'Amaurosis Fugax'
p3790
S'Spinal Cord Vascular Diseases'
p3791
S'Anterior Spinal Artery Syndrome'
p3792
S'Spinal Cord Ischemia'
p3793
S'Infarction, Posterior Cerebral Artery'
p3794
S'Pathological Conditions, Anatomical'
p3795
S'Intracranial Arterial Diseases'
p3796
S'Intracranial Embolism'
p3797
S'Intracranial Thrombosis'
p3798
S'Headache Disorders'
p3799
S'Pick Disease of the Brain'
p3800
S'Sinus Pericranii'
p3801
S'Central Nervous System Vascular Malformations'
p3802
S'Hemangioma, Cavernous, Central Nervous System'
p3803
S'Central Nervous System Venous Angioma'
p3804
S'Bardet-Biedl Syndrome'
p3805
S'Diabetes Insipidus, Neurogenic'
p3806
S'Salivary Calculi'
p3807
S'Photophobia'
p3808
S'Epidural Abscess'
p3809
S'Encephalitis, Herpes Simplex'
p3810
S'Encephalitis, Varicella Zoster'
p3811
S'Central Nervous System Viral Diseases'
p3812
S'Central Nervous System Bacterial Infections'
p3813
S'Central Nervous System Parasitic Infections'
p3814
S'Central Nervous System Protozoal Infections'
p3815
S'Central Nervous System Helminthiasis'
p3816
S'Meningitis, Escherichia coli'
p3817
S'Neuroschistosomiasis'
p3818
S'Perimeningeal Infections'
p3819
S'Dyskinesias'
p3820
S'Dystonic Disorders'
p3821
S'Pseudobulbar Palsy'
p3822
S'Diffuse Axonal Injury'
p3823
S'Lyme Neuroborreliosis'
p3824
S'Hallux Limitus'
p3825
S'Hallux Rigidus'
p3826
S'Central Nervous System Cysts'
p3827
S'Neuromuscular Manifestations'
p3828
S'Somatosensory Disorders'
p3829
S'Hypovolemia'
p3830
S'Myopathies, Structural, Congenital'
p3831
S'Korsakoff Syndrome'
p3832
S'Complex Regional Pain Syndromes'
p3833
S'Sleep Disorders, Intrinsic'
p3834
S'Dyssomnias'
p3835
S'Sleep Arousal Disorders'
p3836
S'Sleep-Wake Transition Disorders'
p3837
S'REM Sleep Parasomnias'
p3838
S'Urological Manifestations'
p3839
S'Hypoxia-Ischemia, Brain'
p3840
S'Epilepsy, Benign Neonatal'
p3841
S'Epilepsy, Partial, Sensory'
p3842
S'Epilepsy, Partial, Motor'
p3843
S'Myasthenia Gravis, Neonatal'
p3844
S'AIDS Arteritis, Central Nervous System'
p3845
S'Lupus Vasculitis, Central Nervous System'
p3846
S'Neuroaspergillosis'
p3847
S'Striatonigral Degeneration'
p3848
S'Lewy Body Disease'
p3849
S'Embryo Loss'
p3850
S'Muscular Disorders, Atrophic'
p3851
S'Myotonic Disorders'
p3852
S'Brachial Plexus Neuritis'
p3853
S'Disease Attributes'
p3854
S'Chronobiology Disorders'
p3855
S'Egg Hypersensitivity'
p3856
S'Wheat Hypersensitivity'
p3857
S'Peanut Hypersensitivity'
p3858
S'Nut Hypersensitivity'
p3859
S'Carcinoma, Pancreatic Ductal'
p3860
S'Flank Pain'
p3861
S'Multicystic Dysplastic Kidney'
p3862
S'Communicable Diseases, Emerging'
p3863
S'Isosporiasis'
p3864
S'Cyclosporiasis'
p3865
S'Aortic Stenosis, Supravalvular'
p3866
S'Discrete Subaortic Stenosis'
p3867
S'Hyperammonemia'
p3868
S'Lacerations'
p3869
S'Hermanski-Pudlak Syndrome'
p3870
S'Chills'
p3871
S'Chlamydophila Infections'
p3872
S'Coronary Restenosis'
p3873
S'Coronary Stenosis'
p3874
S'Gonadal Dysgenesis, 46,XX'
p3875
S'Sarcoma, Myeloid'
p3876
S'Uniparental Disomy'
p3877
S'Open Bite'
p3878
S'Cardiomyopathy, Hypertrophic, Familial'
p3879
S'Tauopathies'
p3880
S'Metabolic Syndrome X'
p3881
S'Chromosome Disorders'
p3882
S'Sex Chromosome Disorders'
p3883
S'Spondylarthritis'
p3884
S'Spondylarthropathies'
p3885
S'Blood Coagulation Disorders, Inherited'
p3886
S'Septo-Optic Dysplasia'
p3887
S'Hip Injuries'
p3888
S'Vitamin B 6 Deficiency'
p3889
S'Polyomavirus Infections'
p3890
S'Amyloidosis, Familial'
p3891
S'Amyloid Neuropathies, Familial'
p3892
S'Cerebral Amyloid Angiopathy, Familial'
p3893
S'Mitochondrial Diseases'
p3894
S'Biotinidase Deficiency'
p3895
S'Holocarboxylase Synthetase Deficiency'
p3896
S'Peste-des-Petits-Ruminants'
p3897
S'Optic Atrophy, Autosomal Dominant'
p3898
S'Optic Atrophy, Hereditary, Leber'
p3899
S'Pulmonary Disease, Chronic Obstructive'
p3900
S'Sialic Acid Storage Disease'
p3901
S'Bronchitis, Chronic'
p3902
S'Anemia, Hypoplastic, Congenital'
p3903
S'Anemia, Diamond-Blackfan'
p3904
S'Jervell-Lange Nielsen Syndrome'
p3905
S'Romano-Ward Syndrome'
p3906
S'Hemorrhagic Syndrome, Bovine'
p3907
S'Denys-Drash Syndrome'
p3908
S'Nidovirales Infections'
p3909
S'Genetic Diseases, Inborn'
p3910
S'Papillomavirus Infections'
p3911
S'Cytochrome-c Oxidase Deficiency'
p3912
S'Acro-Osteolysis'
p3913
S'Knee Dislocation'
p3914
S'Patellar Dislocation'
p3915
S'Erdheim-Chester Disease'
p3916
S'Poult Enteritis Mortality Syndrome'
p3917
S'Retinal Vasculitis'
p3918
S'Zoster Sine Herpete'
p3919
S'Hajdu-Cheney Syndrome'
p3920
S'Gestational Trophoblastic Disease'
p3921
S'Hemorrhagic Septicemia, Viral'
p3922
S'Choriocarcinoma, Non-gestational'
p3923
S'Hyperuricemia'
p3924
S'Insomnia, Fatal Familial'
p3925
S'Wasting Disease, Chronic'
p3926
S'Hypoalbuminemia'
p3927
S'Pelvic Infection'
p3928
S'Hyperamylasemia'
p3929
S'Hearing Loss'
p3930
S'Mastocytosis, Cutaneous'
p3931
S'Mastocytosis, Systemic'
p3932
S'Mastocytoma'
p3933
S'Rare Diseases'
p3934
S'Endometrial Stromal Tumors'
p3935
S'Ciguatera Poisoning'
p3936
S'Fasciitis, Plantar'
p3937
S'Heel Spur'
p3938
S'Metatarsalgia'
p3939
S'Posterior Tibial Tendon Dysfunction'
p3940
S'Hammer Toe Syndrome'
p3941
S'Lower Extremity Deformities, Congenital'
p3942
S'Upper Extremity Deformities, Congenital'
p3943
S'Post-Concussion Syndrome'
p3944
S'Alexander Disease'
p3945
S'Shaken Baby Syndrome'
p3946
S'Mental Retardation, X-Linked'
p3947
S'Coffin-Lowry Syndrome'
p3948
S'Muscular Dystrophy, Oculopharyngeal'
p3949
S'HIV-Associated Lipodystrophy Syndrome'
p3950
S'Bifidobacteriales Infections'
p3951
S'Genetic Diseases, X-Linked'
p3952
S'Retinoschisis'
p3953
S'Cholecystolithiasis'
p3954
S'Jaundice, Obstructive'
p3955
S'Cholecystitis, Acute'
p3956
S'Emphysematous Cholecystitis'
p3957
S'Acalculous Cholecystitis'
p3958
S'Genomic Instability'
p3959
S'Gallstones'
p3960
S'Choledocholithiasis'
p3961
S'Chromosomal Instability'
p3962
S'Irritable Bowel Syndrome'
p3963
S'Steroid Metabolism, Inborn Errors'
p3964
S'Mineralocorticoid Excess Syndrome, Apparent'
p3965
S'Glomus Tympanicum Tumor'
p3966
S'Diverticulosis, Colonic'
p3967
S'Lymphatic Abnormalities'
p3968
S'Piscirickettsiaceae Infections'
p3969
S'Malnutrition'
p3970
S'Overnutrition'
p3971
S'Intestinal Polyposis'
p3972
S'Enterocolitis, Neutropenic'
p3973
S'LEOPARD Syndrome'
p3974
S'Carcinoma, Ductal'
p3975
S'Glucose Metabolism Disorders'
p3976
S'Congenital Hyperinsulinism'
p3977
S'Mannosidase Deficiency Diseases'
p3978
S'beta-Mannosidosis'
p3979
S'Severe Acute Respiratory Syndrome'
p3980
S'Reticulocytosis'
p3981
S'Avulavirus Infections'
p3982
S'Henipavirus Infections'
p3983
S'Steatorrhea'
p3984
S'Diverticulosis, Esophageal'
p3985
S'Diverticulosis, Stomach'
p3986
S'Pneumonia of Swine, Mycoplasmal'
p3987
S'Scleroderma, Diffuse'
p3988
S'Scleroderma, Limited'
p3989
S'Intestinal Volvulus'
p3990
S'Ileus'
p3991
S'Desulfovibrionaceae Infections'
p3992
S'Fusobacteriaceae Infections'
p3993
S'Flavobacteriaceae Infections'
p3994
S'Cytophagaceae Infections'
p3995
S'Moraxellaceae Infections'
p3996
S'Ganglion Cysts'
p3997
S'Monkeypox'
p3998
S'Hearing Loss, Unilateral'
p3999
S'Hearing Loss, Mixed Conductive-Sensorineural'
p4000
S'Hypertension, Pregnancy-Induced'
p4001
S'Laron Syndrome'
p4002
S'Lingual Thyroid'
p4003
S'Gastrointestinal Stromal Tumors'
p4004
S'Pyloric Stenosis, Hypertrophic'
p4005
S'Liver Abscess, Pyogenic'
p4006
S'Coproporphyria, Hereditary'
p4007
S'Porphyria, Variegate'
p4008
S'Protoporphyria, Erythropoietic'
p4009
S'Hernia, Abdominal'
p4010
S'Pubic Symphysis Diastasis'
p4011
S'CADASIL'
p4012
S'Synkinesis'
p4013
S'Sphincter of Oddi Dysfunction'
p4014
S'Hematoma, Subdural, Intracranial'
p4015
S'Hematoma, Subdural, Spinal'
p4016
S'Colitis, Microscopic'
p4017
S'Colitis, Collagenous'
p4018
S'Colitis, Lymphocytic'
p4019
S'Hematoma, Epidural, Spinal'
p4020
S'Nesidioblastosis'
p4021
S'Patellofemoral Pain Syndrome'
p4022
S'Chondromalacia Patellae'
p4023
S'Lingual Goiter'
p4024
S'Preconception Injuries'
p4025
S'Massive Hepatic Necrosis'
p4026
S'Breast Cyst'
p4027
S'Myofibroma'
p4028
S'Myopia, Degenerative'
p4029
S'Pituitary ACTH Hypersecretion'
p4030
S'Adrenogenital Syndrome'
p4031
S'Pulmonary Sclerosing Hemangioma'
p4032
S'Premature Birth'
p4033
S'Fetal Nutrition Disorders'
p4034
S'Pneumonia of Calves, Enzootic'
p4035
S'Bovine Respiratory Disease Complex'
p4036
S'Hepatic Insufficiency'
p4037
S'Micronuclei, Chromosome-Defective'
p4038
S'Diabetes Complications'
p4039
S'Labor Pain'
p4040
S'Morning Sickness'
p4041
S'Plagiocephaly, Nonsynostotic'
p4042
S'Prenatal Injuries'
p4043
S'Decapitation'
p4044
S'Muscular Dystrophies, Limb-Girdle'
p4045
S'Tay-Sachs Disease, AB Variant'
p4046
S'Seroma'
p4047
S'Leukoaraiosis'
p4048
S'Acanthoma'
p4049
S'Distal Myopathies'
p4050
S'Mongolian Spot'
p4051
S'Growth Hormone-Secreting Pituitary Adenoma'
p4052
S'ACTH-Secreting Pituitary Adenoma'
p4053
S'DNA Repair-Deficiency Disorders'
p4054
S'Nijmegen Breakage Syndrome'
p4055
S'Hyperparathyroidism, Primary'
p4056
S'Graves Ophthalmopathy'
p4057
S'Hyperthyroxinemia, Familial Dysalbuminemic'
p4058
S'Andersen Syndrome'
p4059
S'Hashimoto Disease'
p4060
S'Postpartum Thyroiditis'
p4061
S'Thyroid Dysgenesis'
p4062
S'Sexual Infantilism'
p4063
S'White Heifer Disease'
p4064
S'Ovotesticular Disorders of Sex Development'
p4065
S'Dyslipidemias'
p4066
S'Genetic Diseases, Y-Linked'
p4067
S'Overweight'
p4068
S'Atherosclerosis'
p4069
S'Mulibrey Nanism'
p4070
S'Arteriolosclerosis'
p4071
S'Monckeberg Medial Calcific Sclerosis'
p4072
S'Adamantinoma'
p4073
S'Hallux Varus'
p4074
S"Bunion, Tailor\\'s"
p4075
S'Pancreatitis, Chronic'
p4076
S'Fractures, Bone'
p4077
S'Fractures, Cartilage'
p4078
S'Mesomycetozoea Infections'
p4079
S'SUNCT Syndrome'
p4080
S'Wandering Spleen'
p4081
S'Fractures, Compression'
p4082
S'Granulomatosis, Orofacial'
p4083
S'Headache Disorders, Primary'
p4084
S'Headache Disorders, Secondary'
p4085
S'Post-Traumatic Headache'
p4086
S'Post-Dural Puncture Headache'
p4087
S'Paroxysmal Hemicrania'
p4088
S'Trigeminal Autonomic Cephalalgias'
p4089
S'Mobility Limitation'
p4090
S'Lymphohistiocytosis, Hemophagocytic'
p4091
S'Renal Insufficiency, Chronic'
p4092
S'Renal Insufficiency'
p4093
S'Neuralgia, Postherpetic'
p4094
S'Hemospermia'
p4095
S'Odontogenic Tumor, Squamous'
p4096
S'Hyperbilirubinemia, Neonatal'
p4097
S'Histiocytoma'
p4098
S'Histiocytoma, Malignant Fibrous'
p4099
S'Delayed Graft Function'
p4100
S'Mucositis'
p4101
S'Vaginismus'
p4102
S'Glycogen Storage Disease Type IIb'
p4103
S'Frasier Syndrome'
p4104
S'Kidney Diseases, Cystic'
p4105
S'Cephalopelvic Disproportion'
p4106
S'Hydrocolpos'
p4107
S'Usher Syndromes'
p4108
S'Tendinopathy'
p4109
S'Lipid Metabolism Disorders'
p4110
S'Hypoalphalipoproteinemias'
p4111
S'Hypobetalipoproteinemia, Familial, Apolipoprotein B'
p4112
S'Lipodystrophy, Familial Partial'
p4113
S'Lipodystrophy, Congenital Generalized'
p4114
S'Sulfatidosis'
p4115
S'Multiple Sulfatase Deficiency Disease'
p4116
S'Niemann-Pick Disease, Type A'
p4117
S'Niemann-Pick Disease, Type B'
p4118
S'Niemann-Pick Disease, Type C'
p4119
S'Trigger Finger Disorder'
p4120
S'Female Urogenital Diseases'
p4121
S'Balanitis Xerotica Obliterans'
p4122
S'Male Urogenital Diseases'
p4123
S'Cystocele'
p4124
S'Urolithiasis'
p4125
S'Subacute Combined Degeneration'
p4126
S'Pyomyositis'
p4127
S'Refsum Disease, Infantile'
p4128
S'Tarlov Cysts'
p4129
S'Pyonephrosis'
p4130
S'Ureterolithiasis'
p4131
S'Nephrolithiasis'
p4132
S'Hypophosphatemic Rickets, X-Linked Dominant'
p4133
S'Azotemia'
p4134
S'Respiratory Aspiration'
p4135
S'Nocturia'
p4136
S'Dysuria'
p4137
S'Urinary Bladder, Overactive'
p4138
S'Urinary Incontinence, Urge'
p4139
S'Nocturnal Enuresis'
p4140
S'Diurnal Enuresis'
p4141
S'Hyper-IgM Immunodeficiency Syndrome'
p4142
S'Hyper-IgM Immunodeficiency Syndrome, Type 1'
p4143
S'Ectodermal Dysplasia 1, Anhidrotic'
p4144
S'Ectodermal Dysplasia 3, Anhidrotic'
p4145
S'Ectodermal Dysplasia, Hypohidrotic, Autosomal Recessive'
p4146
S'Hand-Arm Vibration Syndrome'
p4147
S'Channelopathies'
p4148
S'Prostatism'
p4149
S'Mink Viral Enteritis'
p4150
S'Leukokeratosis, Hereditary Mucosal'
p4151
S'Keratoderma, Palmoplantar, Epidermolytic'
p4152
S'Pachyonychia Congenita'
p4153
S'Corneal Dystrophy, Juvenile Epithelial of Meesmann'
p4154
S'Ichthyosis Bullosa of Siemens'
p4155
S'Hypercalciuria'
p4156
S'Porcine Postweaning Multisystemic Wasting Syndrome'
p4157
S'Opsoclonus-Myoclonus Syndrome'
p4158
S'Gitelman Syndrome'
p4159
S'Urinoma'
p4160
S'Nuchal Cord'
p4161
S'Pain, Referred'
p4162
S'Stupor'
p4163
S'Lethargy'
p4164
S'Asthenozoospermia'
p4165
S'X-Linked Combined Immunodeficiency Diseases'
p4166
S'Pyelocystitis'
p4167
S'Tendon Entrapment'
p4168
S'De Quervain Disease'
p4169
S'Typhlitis'
p4170
S'Azoospermia'
p4171
S'Aspermia'
p4172
S'Female Athlete Triad Syndrome'
p4173
S'Pneumonia, Ventilator-Associated'
p4174
S'Scleromyxedema'
p4175
S'Cardiovascular Infections'
p4176
S'DNA Degradation, Necrotic'
p4177
S'Brugada Syndrome'
p4178
S'Microsatellite Instability'
p4179
S'Nevus, Sebaceous of Jadassohn'
p4180
S'Immune Reconstitution Inflammatory Syndrome'
p4181
S'Posterior Leukoencephalopathy Syndrome'
p4182
S'Onycholysis'
p4183
S'Acute Coronary Syndrome'
p4184
S'Coronary Occlusion'
p4185
S'Pulmonary Infarction'
p4186
S'Ischemic Contracture'
p4187
S'Deaf-Blind Disorders'
p4188
S'Leukemia, Large Granular Lymphocytic'
p4189
S'Dihydropyrimidine Dehydrogenase Deficiency'
p4190
S'Livedo Reticularis'
p4191
S'Multiple Acyl Coenzyme A Dehydrogenase Deficiency'
p4192
S'Postthrombotic Syndrome'
p4193
S'Mevalonate Kinase Deficiency'
p4194
S'Vascular Malformations'
p4195
S'Vein of Galen Malformations'
p4196
S'Neuronal Migration Disorders'
p4197
S'Lissencephaly'
p4198
S'Ectopia Cordis'
p4199
S'Myocardial Bridging'
p4200
S'Periventricular Nodular Heterotopia'
p4201
S'Foramen Ovale, Patent'
p4202
S'Thrombocytopenia, Neonatal Alloimmune'
p4203
S'Arachnodactyly'
p4204
S'Sinus Arrest, Cardiac'
p4205
S'Tachycardia, Reciprocating'
p4206
S'Ventricular Flutter'
p4207
S'Heart Failure, Systolic'
p4208
S'Heart Failure, Diastolic'
p4209
S'Systolic Murmurs'
p4210
S'Angioedemas, Hereditary'
p4211
S'Precursor Cell Lymphoblastic Leukemia-Lymphoma'
p4212
S'Precursor T-Cell Lymphoblastic Leukemia-Lymphoma'
p4213
S'Neoplasms, Plasma Cell'
p4214
S'Malformations of Cortical Development'
p4215
S'Classical Lissencephalies and Subcortical Band Heterotopias'
p4216
S'Cobblestone Lissencephaly'
p4217
S'Vesicular Stomatitis'
p4218
S'Buruli Ulcer'
p4219
S'No-Reflow Phenomenon'
p4220
S'Marchiafava-Bignami Disease'
p4221
S'Sertoli Cell-Only Syndrome'
p4222
S'Solitary Fibrous Tumor, Pleural'
p4223
S'Solitary Fibrous Tumors'
p4224
S'Lymphoma, Extranodal NK-T-Cell'
p4225
S'Leukemia, Prolymphocytic, B-Cell'
p4226
S'Leukemia, Myelomonocytic, Juvenile'
p4227
S'Myelodysplastic-Myeloproliferative Diseases'
p4228
S'Leukemia, Myeloid, Chronic, Atypical, BCR-ABL Negative'
p4229
S'Lymphoma, Primary Cutaneous Anaplastic Large Cell'
p4230
S'Trichothiodystrophy Syndromes'
p4231
S'Chloracne'
p4232
S'Acute Radiation Syndrome'
p4233
S'Persistent Hyperplastic Primary Vitreous'
p4234
S'Vulvar Vestibulitis'
p4235
S'Orbital Cellulitis'
p4236
S'Atrioventricular Block'
p4237
S'Neuroacanthocytosis'
p4238
S'Takotsubo Cardiomyopathy'
p4239
S'Venous Thromboembolism'
p4240
S'Hyperphosphatemia'
p4241
S'Lymphoma, Primary Effusion'
p4242
S'Mastocytoma, Skin'
p4243
S'Dendritic Cell Sarcoma, Interdigitating'
p4244
S'Dendritic Cell Sarcoma, Follicular'
p4245
S'Histiocytic Sarcoma'
p4246
S'Langerhans Cell Sarcoma'
p4247
S'Osteophyte'
p4248
S'Malignant Atrophic Papulosis'
p4249
S'Jacobsen Distal 11q Deletion Syndrome'
p4250
S'Wolf-Hirschhorn Syndrome'
p4251
S'Aspartylglucosaminuria'
p4252
S'Antley-Bixler Syndrome Phenotype'
p4253
S'Extensively Drug-Resistant Tuberculosis'
p4254
S'Primary Dysautonomias'
p4255
S'Pure Autonomic Failure'
p4256
S'Orthostatic Intolerance'
p4257
S'Postural Orthostatic Tachycardia Syndrome'
p4258
S'Perivascular Epithelioid Cell Neoplasms'
p4259
S'Pallister-Hall Syndrome'
p4260
S'Idiopathic Interstitial Pneumonias'
p4261
S'Nephrogenic Fibrosing Dermopathy'
p4262
S'Idiopathic Pulmonary Fibrosis'
p4263
S'Anthracosis'
p4264
S'Spondylosis'
p4265
S'Posterior Cervical Sympathetic Syndrome'
p4266
S'Osteoarthritis, Spine'
p4267
S'Primary Graft Dysfunction'
p4268
S'Osteochondrosis'
p4269
S'Spinal Osteochondrosis'
p4270
S'Campomelic Dysplasia'
p4271
S'Tracheobronchomalacia'
p4272
S'Tracheomalacia'
p4273
S'Bronchomalacia'
p4274
S'Laryngomalacia'
p4275
S'Periodontal Atrophy'
p4276
S'Failed Back Surgery Syndrome'
p4277
S'Pyometra'
p4278
S'Chronic Periodontitis'
p4279
S'Dysphonia'
p4280
S'Delayed Emergence from Anesthesia'
p4281
S'Adenomyoepithelioma'
p4282
S'Lung Injury'
p4283
S'Acute Lung Injury'
p4284
S'Ventilator-Induced Lung Injury'
p4285
S'Neurogenic Bowel'
p4286
S'Catheter-Related Infections'
p4287
S'Macrophage Activation Syndrome'
p4288
S'Bulbo-Spinal Atrophy, X-Linked'
p4289
S'Morgellons Disease'
p4290
S'delta-Thalassemia'
p4291
S'Farber Lipogranulomatosis'
p4292
S'Pancreatitis, Graft'
p4293
S'Multiple Pulmonary Nodules'
p4294
S'Orbital Myositis'
p4295
S'Keratosis, Actinic'
p4296
S'Gray Platelet Syndrome'
p4297
S'Muir-Torre Syndrome'
p4298
S'Purpura Fulminans'
p4299
S'Acrocallosal Syndrome'
p4300
S'Refeeding Syndrome'
p4301
S'Primary Myelofibrosis'
p4302
S'Pulmonary Aspergillosis'
p4303
S'Invasive Pulmonary Aspergillosis'
p4304
S'Small Cell Lung Carcinoma'
p4305
S'Meningeal Carcinomatosis'
p4306
S'Reticuloendotheliosis, Avian'
p4307
S'Lynch Syndrome II'
p4308
S'Nevus, Halo'
p4309
S'Loeys-Dietz Syndrome'
p4310
S'Sarcopenia'
p4311
S'Vasa Previa'
p4312
S'Cogan Syndrome'
p4313
S'Microscopic Polyangiitis'
p4314
S'Corneal Endothelial Cell Loss'
p4315
S'Susac Syndrome'
p4316
S'Diffuse Neurofibrillary Tangles with Calcification'
p4317
S'Piriformis Muscle Syndrome'
p4318
S'Intervertebral Disc Degeneration'
p4319
S'Asthma, Aspirin-Induced'
p4320
S'Alien Hand Syndrome'
p4321
S'Latent Tuberculosis'
p4322
S'Leprosy, Paucibacillary'
p4323
S'Leprosy, Multibacillary'
p4324
S'Commotio Cordis'
p4325
S'Slit Ventricle Syndrome'
p4326
S'Obesity, Abdominal'
p4327
S'Corpse Dismemberment'
p4328
S'Acute Generalized Exanthematous Pustulosis'
p4329
S'Airway Remodeling'
p4330
S'Erythrokeratodermia Variabilis'
p4331
S'Pagetoid Reticulosis'
p4332
S'Genu Valgum'
p4333
S'Genu Varum'
p4334
S'Colloid Cysts'
p4335
S'Drug-Induced Liver Injury'
p4336
S'Drug-Induced Liver Injury, Chronic'
p4337
S'Acute Chest Syndrome'
p4338
S'Cryopyrin-Associated Periodic Syndromes'
p4339
S'Peritoneal Fibrosis'
p4340
S'Systemic Vasculitis'
p4341
S'Anti-Neutrophil Cytoplasmic Antibody-Associated Vasculitis'
p4342
S'Vulvodynia'
p4343
S'Rheumatoid Vasculitis'
p4344
S'Hereditary Autoinflammatory Diseases'
p4345
S'Yellow Nail Syndrome'
p4346
S'Costello Syndrome'
p4347
S'Propionic Acidemia'
p4348
S'von Willebrand Disease, Type 1'
p4349
S'von Willebrand Disease, Type 2'
p4350
S'von Willebrand Disease, Type 3'
p4351
S'Silver-Russell Syndrome'
p4352
S'Donohue Syndrome'
p4353
S'Prolidase Deficiency'
p4354
S'Carney Complex'
p4355
S'Monilethrix'
p4356
S'Autoimmune Lymphoproliferative Syndrome'
p4357
S'Giant Axonal Neuropathy'
p4358
S'Alstrom Syndrome'
p4359
S'Netherton Syndrome'
p4360
S'Leukoencephalopathies'
p4361
S'Urea Cycle Disorders, Inborn'
p4362
S'Argininosuccinic Aciduria'
p4363
S'Upper Extremity Deep Vein Thrombosis'
p4364
S'Hereditary Angioedema Type III'
p4365
S'Hereditary Angioedema Types I and II'
p4366
S'Isolated Noncompaction of the Ventricular Myocardium'
p4367
S'Central Serous Chorioretinopathy'
p4368
S'Renal Colic'
p4369
S'Weill-Marchesani Syndrome'
p4370
S'Contrecoup Injury'
p4371
S'Pelvic Organ Prolapse'
p4372
S'Barth Syndrome'
p4373
S'Liddle Syndrome'
p4374
S'Euglenozoa Infections'
p4375
S'Vasoplegia'
p4376
S'Anterior Wall Myocardial Infarction'
p4377
S'Inferior Wall Myocardial Infarction'
p4378
S'Laryngopharyngeal Reflux'
p4379
S'Thrombotic Microangiopathies'
p4380
S'Low Tension Glaucoma'
p4381
S'Periprosthetic Fractures'
p4382
S'Intra-Articular Fractures'
p4383
S'Tooth Wear'
p4384
S'Anetoderma'
p4385
S'Eccrine Porocarcinoma'
p4386
S'Poroma'
p4387
S'Geographic Atrophy'
p4388
S'Shellfish Poisoning'
p4389
tp4390
.