(S'Abortion, Eugenic'
p0
S'Abortion, Induced'
p1
S'Abortion, Legal'
p2
S'Abortion, Therapeutic'
p3
S'Dental Abutments'
p4
S'Acid Etching, Dental'
p5
S'Acoustic Impedance Tests'
p6
S'Acoustic Stimulation'
p7
S'Activation Analysis'
p8
S'Activator Appliances'
p9
S'Activities of Daily Living'
p10
S'Actuarial Analysis'
p11
S'Adenoidectomy'
p12
S'Administration, Buccal'
p13
S'Administration, Cutaneous'
p14
S'Administration, Inhalation'
p15
S'Administration, Intranasal'
p16
S'Administration, Intravaginal'
p17
S'Administration, Intravesical'
p18
S'Administration, Oral'
p19
S'Administration, Rectal'
p20
S'Administration, Sublingual'
p21
S'Administration, Topical'
p22
S'Adrenal Cortex Function Tests'
p23
S'Adrenalectomy'
p24
S'Aftercare'
p25
S'Age Determination by Skeleton'
p26
S'Age Determination by Teeth'
p27
S'Agglutination Tests'
p28
S'Airway Resistance'
p29
S'Alpha Rhythm'
p30
S'Complementary Therapies'
p31
S'Alveolar Ridge Augmentation'
p32
S'Alveolectomy'
p33
S'Alveoloplasty'
p34
S'Ambulatory Care'
p35
S'Ambulatory Surgical Procedures'
p36
S'Ammotherapy'
p37
S'Amniocentesis'
p38
S'Amplifiers, Electronic'
p39
S'Amputation'
p40
S'Analgesia'
p41
S'Analysis of Variance'
p42
S'Anastomosis, Roux-en-Y'
p43
S'Anastomosis, Surgical'
p44
S'Anesthesia'
p45
S'Anesthesia and Analgesia'
p46
S'Anesthesia Recovery Period'
p47
S'Anesthesia, Caudal'
p48
S'Anesthesia, Closed-Circuit'
p49
S'Anesthesia, Conduction'
p50
S'Anesthesia, Dental'
p51
S'Anesthesia, Epidural'
p52
S'Anesthesia, General'
p53
S'Anesthesia, Inhalation'
p54
S'Anesthesia, Intratracheal'
p55
S'Anesthesia, Intravenous'
p56
S'Anesthesia, Local'
p57
S'Anesthesia, Obstetrical'
p58
S'Anesthesia, Rectal'
p59
S'Anesthesia, Spinal'
p60
S'Angiocardiography'
p61
S'Angiography'
p62
S'Angioplasty, Balloon'
p63
S'Animal Identification Systems'
p64
S'Animal Testing Alternatives'
p65
S'Anthropometry'
p66
S'Anthroposophy'
p67
S'Antibody-Coated Bacteria Test, Urinary'
p68
S'Antineoplastic Combined Chemotherapy Protocols'
p69
S'Coronary Artery Bypass'
p70
S'Aortography'
p71
S'Apgar Score'
p72
S'Apicoectomy'
p73
S'Appendectomy'
p74
S'Art Therapy'
p75
S'Arteriovenous Shunt, Surgical'
p76
S'Arthritis, Experimental'
p77
S'Arthrodesis'
p78
S'Arthrography'
p79
S'Arthroplasty'
p80
S'Arthroscopy'
p81
S'Artificial Limbs'
p82
S'Artificial Organs'
p83
S'Assisted Circulation'
p84
S'Atmosphere Exposure Chambers'
p85
S'Audioanalgesia'
p86
S'Audiometry'
p87
S'Audiometry, Evoked Response'
p88
S'Audiometry, Pure-Tone'
p89
S'Audiometry, Speech'
p90
S'Auscultation'
p91
S'Autoanalysis'
p92
S'Autogenic Training'
p93
S'Autonomic Nerve Block'
p94
S'Autopsy'
p95
S'Autoradiography'
p96
S'Autosuggestion'
p97
S'Reflex, Babinski'
p98
S'Bacteriological Techniques'
p99
S'Bacteriophage Typing'
p100
S'Ballistocardiography'
p101
S'Balneology'
p102
S'Bandages'
p103
S'Basal Metabolism'
p104
S'Baths'
p105
S'Bayes Theorem'
p106
S'Bed Rest'
p107
S'Bedding and Linens'
p108
S'Beds'
p109
S'Beta Rhythm'
p110
S'Bibliotherapy'
p111
S'Biliary Tract Surgical Procedures'
p112
S'Binding, Competitive'
p113
S'Bioelectric Energy Sources'
p114
S'Biofeedback, Psychology'
p115
S'Biological Assay'
p116
S'Biological Dressings'
p117
S'Biological Therapy'
p118
S'Biometry'
p119
S'Bioprosthesis'
p120
S'Biopsy'
p121
S'Biopsy, Needle'
p122
S'Birth Certificates'
p123
S'Birth Rate'
p124
S'Birth Weight'
p125
S'Bite Force'
p126
S'Biuret Reaction'
p127
S'Blade Implantation'
p128
S'Bleeding Time'
p129
S'Blood Cell Count'
p130
S'Blood Chemical Analysis'
p131
S'Blood Circulation Time'
p132
S'Blood Coagulation Tests'
p133
S'Blood Component Removal'
p134
S'Blood Flow Velocity'
p135
S'Blood Gas Analysis'
p136
S'Blood Gas Monitoring, Transcutaneous'
p137
S'Blood Grouping and Crossmatching'
p138
S'Blood Preservation'
p139
S'Blood Pressure'
p140
S'Blood Pressure Determination'
p141
S'Blood Protein Electrophoresis'
p142
S'Blood Sedimentation'
p143
S'Blood Specimen Collection'
p144
S'Blood Transfusion'
p145
S'Blood Transfusion, Autologous'
p146
S'Blood Transfusion, Intrauterine'
p147
S'Blood Urea Nitrogen'
p148
S'Blood Vessel Prosthesis'
p149
S'Blood Volume Determination'
p150
S'Bloodletting'
p151
S'Body Burden'
p152
S'Body Constitution'
p153
S'Body Height'
p154
S'Body Surface Area'
p155
S'Body Temperature'
p156
S'Body Weight'
p157
S'Body Weights and Measures'
p158
S'Dental Bonding'
p159
S'Bone Lengthening'
p160
S'Bone Marrow Examination'
p161
S'Bone Nails'
p162
S'Bone Plates'
p163
S'Bone Screws'
p164
S'Bone Wires'
p165
S'Bottle Feeding'
p166
S'Braces'
p167
S'Brachytherapy'
p168
S'Brain Mapping'
p169
S'Breath Tests'
p170
S'Breathing Exercises'
p171
S'Breeding'
p172
S'Bronchial Provocation Tests'
p173
S'Bronchoalveolar Lavage Fluid'
p174
S'Bronchography'
p175
S'Bronchoscopy'
p176
S'Bronchospirometry'
p177
S'Calibration'
p178
S'Caloric Tests'
p179
S'Calorimetry'
p180
S'Calorimetry, Differential Scanning'
p181
S'Calorimetry, Indirect'
p182
S'Canes'
p183
S'Capillary Fragility'
p184
S'Cardiac Output'
p185
S'Cardiac Pacing, Artificial'
p186
S'Cardiography, Impedance'
p187
S'Cardiopulmonary Bypass'
p188
S'Castration'
p189
S'Casts, Surgical'
p190
S'Cataract Extraction'
p191
S'Catgut'
p192
S'Catheterization'
p193
S'Catheterization, Central Venous'
p194
S'Catheterization, Peripheral'
p195
S'Catheterization, Swan-Ganz'
p196
S'Catheters, Indwelling'
p197
S'Cause of Death'
p198
S'Cautery'
p199
S'Cecostomy'
p200
S'Cell Count'
p201
S'Cell Fractionation'
p202
S'Cell Fusion'
p203
S'Cell Separation'
p204
S'Cementation'
p205
S'Centrifugation'
p206
S'Centrifugation, Density Gradient'
p207
S'Centrifugation, Isopycnic'
p208
S'Centrifugation, Zonal'
p209
S'Cephalometry'
p210
S'Cerebral Angiography'
p211
S'Cerebral Decortication'
p212
S'Cerebral Revascularization'
p213
S'Cerebrospinal Fluid Shunts'
p214
S'Cesarean Section'
p215
S'Chemexfoliation'
p216
S'Chemistry Techniques, Analytical'
p217
S'Cholangiography'
p218
S'Cholangiopancreatography, Endoscopic Retrograde'
p219
S'Cholecystectomy'
p220
S'Cholecystography'
p221
S'Cholecystostomy'
p222
S'Choledochostomy'
p223
S'Cordotomy'
p224
S'Chromatography'
p225
S'Chromatography, Affinity'
p226
S'Chromatography, Agarose'
p227
S'Chromatography, DEAE-Cellulose'
p228
S'Chromatography, Gas'
p229
S'Chromatography, Gel'
p230
S'Chromatography, High Pressure Liquid'
p231
S'Chromatography, Ion Exchange'
p232
S'Chromatography, Liquid'
p233
S'Chromatography, Paper'
p234
S'Chromatography, Thin Layer'
p235
S'Chromosome Banding'
p236
S'Chromosome Mapping'
p237
S'Chronaxy'
p238
S'Cineangiography'
p239
S'Cineradiography'
p240
S'Circular Dichroism'
p241
S'Circumcision, Male'
p242
S'Clinical Protocols'
p243
S'Clinical Trials as Topic'
p244
S'Cloning, Molecular'
p245
S'Closing Volume'
p246
S'Clot Retraction'
p247
S'Cochlear Implants'
p248
S'Coitus Interruptus'
p249
S'Colectomy'
p250
S'Collapse Therapy'
p251
S'Colonoscopy'
p252
S'Colony-Forming Units Assay'
p253
S'Color Perception Tests'
p254
S'Colorimetry'
p255
S'Colostomy'
p256
S'Colposcopy'
p257
S'Combined Modality Therapy'
p258
S'Communication Aids for Disabled'
p259
S'Communication Methods, Total'
p260
S'Complement Fixation Tests'
p261
S'Conductometry'
p262
S'Constriction'
p263
S'Contact Lenses'
p264
S'Contact Lenses, Extended-Wear'
p265
S'Contact Lenses, Hydrophilic'
p266
S'Containment of Biohazards'
p267
S'Contraception'
p268
S'Contraception, Immunologic'
p269
S'Contraceptive Devices'
p270
S'Contraceptive Devices, Female'
p271
S'Contraceptive Devices, Male'
p272
S'Coombs Test'
p273
S'Cornell Medical Index'
p274
S'Cortical Synchronization'
p275
S'Cosmetic Techniques'
p276
S'Countercurrent Distribution'
p277
S'Counterimmunoelectrophoresis'
p278
S'Craniotomy'
p279
S'Critical Care'
p280
S'Cross Circulation'
p281
S'Cross-Sectional Studies'
p282
S'Crosses, Genetic'
p283
S'Crowns'
p284
S'Crutches'
p285
S'Cryosurgery'
p286
S'Crystallization'
p287
S'Crystallography'
p288
S'Culdoscopy'
p289
S'Culture Media'
p290
S'Curettage'
p291
S'Custodial Care'
p292
S'Cystoscopy'
p293
S'Cystostomy'
p294
S'Cytodiagnosis'
p295
S'Cytological Techniques'
p296
S'Cytopathogenic Effect, Viral'
p297
S'Cytophotometry'
p298
S'Cytotoxicity Tests, Immunologic'
p299
S'Dacryocystorhinostomy'
p300
S'Dance Therapy'
p301
S'Data Collection'
p302
S'Data Interpretation, Statistical'
p303
S'Day Care'
p304
S'Death Certificates'
p305
S'Debridement'
p306
S'Decalcification Technique'
p307
S'Decision Support Techniques'
p308
S'Decompression'
p309
S'Deinstitutionalization'
p310
S'Delayed-Action Preparations'
p311
S'Delta Rhythm'
p312
S'Denervation'
p313
S'Densitometry'
p314
S'Dental Articulators'
p315
S'Dental Care'
p316
S'Dental Care for Disabled'
p317
S'Dental Caries Activity Tests'
p318
S'Dental Casting Technique'
p319
S'Dental Cavity Lining'
p320
S'Dental Cavity Preparation'
p321
S'Dental Devices, Home Care'
p322
S'Dental Equipment'
p323
S'Dental Health Surveys'
p324
S'Dental High-Speed Equipment'
p325
S'Dental High-Speed Technique'
p326
S'Dental Implantation'
p327
S'Dental Implantation, Endosseous'
p328
S'Dental Implantation, Endosseous, Endodontic'
p329
S'Dental Impression Technique'
p330
S'Dental Instruments'
p331
S'Dental Models'
p332
S'Dental Occlusion'
p333
S'Dental Occlusion, Balanced'
p334
S'Dental Occlusion, Centric'
p335
S'Dental Pins'
p336
S'Dental Plaque Index'
p337
S'Dental Polishing'
p338
S'Dental Prophylaxis'
p339
S'Dentures'
p340
S'Denture Design'
p341
S'Denture Repair'
p342
S'Denture Retention'
p343
S'Dental Pulp Capping'
p344
S'Dental Pulp Devitalization'
p345
S'Dental Pulp Test'
p346
S'Dental Records'
p347
S'Dental Restoration, Permanent'
p348
S'Dental Restoration, Temporary'
p349
S'Dental Stress Analysis'
p350
S'Dental Veneers'
p351
S'Dentistry'
p352
S'Dentistry, Operative'
p353
S'Denture Bases'
p354
S'Denture Identification Marking'
p355
S'Denture Liners'
p356
S'Denture Rebasing'
p357
S'Denture, Complete'
p358
S'Denture, Complete, Immediate'
p359
S'Denture, Complete, Lower'
p360
S'Denture, Complete, Upper'
p361
S'Denture, Overlay'
p362
S'Denture, Partial'
p363
S'Denture, Partial, Fixed'
p364
S'Denture, Partial, Immediate'
p365
S'Denture, Partial, Removable'
p366
S'Denture, Partial, Temporary'
p367
S'Denture Precision Attachment'
p368
S'Dermabrasion'
p369
S'Dermatoglyphics'
p370
S'Desensitization, Immunologic'
p371
S'Desiccation'
p372
S'Diabetes Mellitus, Experimental'
p373
S'Diabetic Diet'
p374
S'Diagnosis'
p375
S'Diagnostic Techniques, Cardiovascular'
p376
S'Diagnosis, Computer-Assisted'
p377
S'Diagnosis, Differential'
p378
S'Diagnostic Techniques, Digestive System'
p379
S'Diagnostic Techniques, Otological'
p380
S'Diagnostic Techniques, Endocrine'
p381
S'Diagnostic Techniques, Ophthalmological'
p382
S'Diagnostic Techniques, Neurological'
p383
S'Diagnostic Techniques, Obstetrical and Gynecological'
p384
S'Diagnosis, Oral'
p385
S'Diagnostic Techniques, Radioisotope'
p386
S'Diagnostic Techniques, Respiratory System'
p387
S'Diagnostic Techniques, Surgical'
p388
S'Diagnostic Techniques, Urological'
p389
S'Diagnostic Errors'
p390
S'Diagnostic Imaging'
p391
S'Diagnostic Tests, Routine'
p392
S'Dialysis'
p393
S'Diathermy'
p394
S'Dichotic Listening Tests'
p395
S'Diet Surveys'
p396
S'Diet Therapy'
p397
S'Diet, Atherogenic'
p398
S'Diet, Cariogenic'
p399
S'Diet, Reducing'
p400
S'Diet, Sodium-Restricted'
p401
S'Differential Thermal Analysis'
p402
S'Dilatation'
p403
S'Dilatation and Curettage'
p404
S'Disability Evaluation'
p405
S'Disarticulation'
p406
S'Disease Models, Animal'
p407
S'Disposable Equipment'
p408
S'Dissection'
p409
S'DMF Index'
p410
S'DNA Mutational Analysis'
p411
S'Dosage Forms'
p412
S'Dose-Response Relationship, Radiation'
p413
S'Double-Blind Method'
p414
S'Drainage'
p415
S'Drug Administration Routes'
p416
S'Drug Administration Schedule'
p417
S'Drug Carriers'
p418
S'Drug Compounding'
p419
S'Drug Evaluation'
p420
S'Drug Incompatibility'
p421
S'Drug Labeling'
p422
S'Drug Packaging'
p423
S'Drug Evaluation, Preclinical'
p424
S'Drug Screening Assays, Antitumor'
p425
S'Drug Stability'
p426
S'Drug Storage'
p427
S'Drug Therapy'
p428
S'Drug Therapy, Combination'
p429
S'Drug Therapy, Computer-Assisted'
p430
S'Duodenoscopy'
p431
S'Duodenostomy'
p432
S'Durable Medical Equipment'
p433
S'Dye Dilution Technique'
p434
S'Ear Protective Devices'
p435
S'Early Ambulation'
p436
S'Echocardiography'
p437
S'Echoencephalography'
p438
S'Electric Countershock'
p439
S'Electric Stimulation'
p440
S'Electric Wiring'
p441
S'Transcutaneous Electric Nerve Stimulation'
p442
S'Electrocardiography'
p443
S'Electrocoagulation'
p444
S'Electrodes'
p445
S'Electrodes, Implanted'
p446
S'Electrodiagnosis'
p447
S'Electroencephalography'
p448
S'Electrogalvanism, Intraoral'
p449
S'Electrokymography'
p450
S'Electrolysis'
p451
S'Electromyography'
p452
S'Electron Probe Microanalysis'
p453
S'Electron Spin Resonance Spectroscopy'
p454
S'Electronarcosis'
p455
S'Electronystagmography'
p456
S'Electrooculography'
p457
S'Electrophoresis'
p458
S'Electrophoresis, Agar Gel'
p459
S'Electrophoresis, Cellulose Acetate'
p460
S'Electrophoresis, Disc'
p461
S'Electrophoresis, Paper'
p462
S'Electrophoresis, Polyacrylamide Gel'
p463
S'Electrophoresis, Starch Gel'
p464
S'Electroplating'
p465
S'Electroretinography'
p466
S'Electroshock'
p467
S'Electrosurgery'
p468
S'Electric Stimulation Therapy'
p469
S'Embolization, Therapeutic'
p470
S'Embryo Transfer'
p471
S'Emergency Medical Tags'
p472
S'Emergency Treatment'
p473
S'Encephalomyelitis, Autoimmune, Experimental'
p474
S'Endarterectomy'
p475
S'Endodontics'
p476
S'Endolymphatic Shunt'
p477
S'Endoscopy'
p478
S'Enema'
p479
S'Enteral Nutrition'
p480
S'Enterostomy'
p481
S'Enzyme Stability'
p482
S'Clinical Enzyme Tests'
p483
S'Enzyme-Linked Immunosorbent Assay'
p484
S'Epidemiologic Methods'
p485
S'Episiotomy'
p486
S'Equipment and Supplies'
p487
S'Equipment and Supplies, Hospital'
p488
S'Equipment Design'
p489
S'Equipment Failure'
p490
S'Equipment Safety'
p491
S'Erythrocyte Aggregation'
p492
S'Erythrocyte Count'
p493
S'Erythrocyte Indices'
p494
S'Esophagoplasty'
p495
S'Esophagoscopy'
p496
S'Esophagostomy'
p497
S'Esthetics, Dental'
p498
S'Estrus Detection'
p499
S'Estrus Synchronization'
p500
S'Euthanasia'
p501
S'Euthanasia, Passive'
p502
S'Evaluation Studies as Topic'
p503
S'Exchange Transfusion, Whole Blood'
p504
S'Exercise Test'
p505
S'Exercise Therapy'
p506
S'Expiratory Reserve Volume'
p507
S'Extracorporeal Circulation'
p508
S'Extraction, Obstetrical'
p509
S'Extraoral Traction Appliances'
p510
S'Eye Protective Devices'
p511
S'Eye, Artificial'
p512
S'Eyeglasses'
p513
S'Facial Expression'
p514
S'Factor Analysis, Statistical'
p515
S'Fallopian Tube Patency Tests'
p516
S'False Negative Reactions'
p517
S'False Positive Reactions'
p518
S'Feasibility Studies'
p519
S'Feeding Methods'
p520
S'Fenestration, Labyrinth'
p521
S'Fertilization in Vitro'
p522
S'Fetal Monitoring'
p523
S'Fetoscopy'
p524
S'FIGLU Test'
p525
S'Film Dosimetry'
p526
S'Filtration'
p527
S'First Aid'
p528
S'Flame Ionization'
p529
S'Flicker Fusion'
p530
S'Flocculation'
p531
S'Flocculation Tests'
p532
S'Flow Cytometry'
p533
S'Fluid Therapy'
p534
S'Fluorescein Angiography'
p535
S'Fluorescence Polarization'
p536
S'Fluorescent Antibody Technique'
p537
S'Fluoridation'
p538
S'Fluorometry'
p539
S'Fluoroscopy'
p540
S'Follow-Up Studies'
p541
S'Food Analysis'
p542
S'Forced Expiratory Flow Rates'
p543
S'Forced Expiratory Volume'
p544
S'Foster Home Care'
p545
S'Fourier Analysis'
p546
S'Fractional Precipitation'
p547
S'Chemical Fractionation'
p548
S'Fracture Fixation'
p549
S'Fracture Fixation, Internal'
p550
S'Fracture Fixation, Intramedullary'
p551
S'Freeze Drying'
p552
S'Freeze Etching'
p553
S'Freeze Fracturing'
p554
S'Frozen Sections'
p555
S'Functional Residual Capacity'
p556
S'Gravity Suits'
p557
S'Gait'
p558
S'Gastrectomy'
p559
S'Gastric Acidity Determination'
p560
S'Gastric Lavage'
p561
S'Gastroenterostomy'
p562
S'Gastrointestinal Transit'
p563
S'Gastroscopy'
p564
S'Gastrostomy'
p565
S'Immunodiffusion'
p566
S'Gelatin Sponge, Absorbable'
p567
S'Patient Care'
p568
S'Genetic Complementation Test'
p569
S'Genetic Engineering'
p570
S'Genetic Testing'
p571
S'Genetic Techniques'
p572
S'Gingivectomy'
p573
S'Gingivoplasty'
p574
S'Glomerular Filtration Rate'
p575
S'Glossectomy'
p576
S'Gloves, Surgical'
p577
S'Glucose Tolerance Test'
p578
S'Gonioscopy'
p579
S'Graft Enhancement, Immunologic'
p580
S'Hair Removal'
p581
S'Hardness Tests'
p582
S'Head Protective Devices'
p583
S'Health Status Indicators'
p584
S'Health Surveys'
p585
S'Hearing Aids'
p586
S'Hearing Tests'
p587
S'Heart Arrest, Induced'
p588
S'Heart Auscultation'
p589
S'Cardiac Catheterization'
p590
S'Heart Function Tests'
p591
S'Heart Massage'
p592
S'Heart Rate'
p593
S'Cardiac Surgical Procedures'
p594
S'Heart Valve Prosthesis'
p595
S'Heart-Assist Devices'
p596
S'Heart, Artificial'
p597
S'Heart-Lung Machine'
p598
S'Heliotherapy'
p599
S'Hemadsorption Inhibition Tests'
p600
S'Hemagglutination Inhibition Tests'
p601
S'Hemagglutination Tests'
p602
S'Hematocrit'
p603
S'Hematologic Tests'
p604
S'Hematoporphyrin Photoradiation'
p605
S'Hemipelvectomy'
p606
S'Renal Dialysis'
p607
S'Hemodialysis, Home'
p608
S'Hemodilution'
p609
S'Hemofiltration'
p610
S'Hemoglobinometry'
p611
S'Hemolytic Plaque Technique'
p612
S'Hemoperfusion'
p613
S'Hemostasis, Surgical'
p614
S'Hemostatic Techniques'
p615
S'Hepatectomy'
p616
S'Heterozygote Detection'
p617
S'High-Frequency Jet Ventilation'
p618
S'High-Frequency Ventilation'
p619
S'Hip Prosthesis'
p620
S'Histocompatibility Testing'
p621
S'Histocytochemistry'
p622
S'Histological Techniques'
p623
S'Holistic Health'
p624
S'Holography'
p625
S'Home Nursing'
p626
S'Homeopathy'
p627
S'Hospital Records'
p628
S'Hospitalization'
p629
S'Hospitals, Packaged'
p630
S'Human Experimentation'
p631
S'Hybridization, Genetic'
p632
S'Hydrotherapy'
p633
S'Hygiene'
p634
S'Hyperbaric Oxygenation'
p635
S'Hyperthermia, Induced'
p636
S'Hypnosis'
p637
S'Hypnosis, Anesthetic'
p638
S'Hypnosis, Dental'
p639
S'Hypophysectomy'
p640
S'Hypophysectomy, Chemical'
p641
S'Hypotension, Controlled'
p642
S'Hypothermia, Induced'
p643
S'Hysterectomy'
p644
S'Hysterectomy, Vaginal'
p645
S'Hysterosalpingography'
p646
S'Ileostomy'
p647
S'Image Enhancement'
p648
S'Image Interpretation, Computer-Assisted'
p649
S'Immersion'
p650
S'Immobilization'
p651
S'Immune Adherence Reaction'
p652
S'Immunization'
p653
S'Immunization Schedule'
p654
S'Immunization, Passive'
p655
S'Immunization, Secondary'
p656
S'Immunoassay'
p657
S'Immunoelectrophoresis'
p658
S'Immunoelectrophoresis, Two-Dimensional'
p659
S'Immunoenzyme Techniques'
p660
S'Immunohistochemistry'
p661
S'Immunologic Techniques'
p662
S'Immunologic Tests'
p663
S'Immunosorbent Techniques'
p664
S'Immunosuppression'
p665
S'Immunotherapy'
p666
S'Inbreeding'
p667
S'Incubators'
p668
S'Incubators, Infant'
p669
S'Indicator Dilution Techniques'
p670
S'Infant Mortality'
p671
S'Infusion Pumps'
p672
S'Infusions, Intra-Arterial'
p673
S'Infusions, Intravenous'
p674
S'Infusions, Parenteral'
p675
S'Injections'
p676
S'Injections, Epidural'
p677
S'Injections, Intra-Arterial'
p678
S'Injections, Intra-Articular'
p679
S'Injections, Intradermal'
p680
S'Injections, Intralymphatic'
p681
S'Injections, Intramuscular'
p682
S'Injections, Intraperitoneal'
p683
S'Injections, Intravenous'
p684
S'Injections, Intraventricular'
p685
S'Injections, Jet'
p686
S'Injections, Spinal'
p687
S'Injections, Subcutaneous'
p688
S'Inlays'
p689
S'Insemination, Artificial'
p690
S'Insemination, Artificial, Heterologous'
p691
S'Insemination, Artificial, Homologous'
p692
S'Inspiratory Capacity'
p693
S'Inspiratory Reserve Volume'
p694
S'Instillation, Drug'
p695
S'Institutionalization'
p696
S'Insufflation'
p697
S'Insulin Infusion Systems'
p698
S'Interferometry'
p699
S'Intermittent Positive-Pressure Breathing'
p700
S'Intermittent Positive-Pressure Ventilation'
p701
S'Internal Mammary-Coronary Artery Anastomosis'
p702
S'International System of Units'
p703
S'Intervertebral Disc Chemolysis'
p704
S'Interviews as Topic'
p705
S'Intra-Aortic Balloon Pumping'
p706
S'Intradermal Tests'
p707
S'Intraoperative Care'
p708
S'Intraoperative Period'
p709
S'Intrauterine Device Expulsion'
p710
S'Intrauterine Devices'
p711
S'Intrauterine Devices, Copper'
p712
S'Intrauterine Devices, Medicated'
p713
S'Intubation'
p714
S'Intubation, Gastrointestinal'
p715
S'Intubation, Intratracheal'
p716
S'Iontophoresis'
p717
S'Therapeutic Irrigation'
p718
S'Isoelectric Focusing'
p719
S'Isoelectric Point'
p720
S'Isotope Labeling'
p721
S'Jaw Relation Record'
p722
S'Jejunoileal Bypass'
p723
S'Jejunostomy'
p724
S'Joint Prosthesis'
p725
S'Karyometry'
p726
S'Karyotyping'
p727
S'Keratotomy, Radial'
p728
S'Kidney Function Tests'
p729
S'Kidneys, Artificial'
p730
S'Kinetocardiography'
p731
S'Knee Prosthesis'
p732
S'Kveim Test'
p733
S'Kymography'
p734
S'Labor, Induced'
p735
S'Lactose Tolerance Test'
p736
S'Laminectomy'
p737
S'Language Therapy'
p738
S'Laparotomy'
p739
S'Laryngectomy'
p740
S'Laryngoscopy'
p741
S'Larynx, Artificial'
p742
S'Lasers'
p743
S'Latex Fixation Tests'
p744
S'Length of Stay'
p745
S'Lenses'
p746
S'Lenses, Intraocular'
p747
S'Lethal Dose 50'
p748
S'Leukapheresis'
p749
S'Leukemia, Experimental'
p750
S'Leukocyte Adherence Inhibition Test'
p751
S'Leukocyte Count'
p752
S'Lymphocyte Culture Test, Mixed'
p753
S'Life Expectancy'
p754
S'Life Support Care'
p755
S'Ligation'
p756
S'Light Coagulation'
p757
S'Limulus Test'
p758
S'Lipreading'
p759
S'Lithotripsy'
p760
S'Liver Cirrhosis, Experimental'
p761
S'Liver Function Tests'
p762
S'Liver Neoplasms, Experimental'
p763
S'Long-Term Care'
p764
S'Longitudinal Studies'
p765
S'Lower Body Negative Pressure'
p766
S'Lubrication'
p767
S'Luminescent Measurements'
p768
S'Lung Compliance'
p769
S'Lung Volume Measurements'
p770
S'Lymph Node Excision'
p771
S'Lymphocyte Depletion'
p772
S'Lymphocyte Activation'
p773
S'Lymphography'
p774
S'Magic'
p775
S'Magnetic Resonance Imaging'
p776
S'Mammary Neoplasms, Experimental'
p777
S'Mammography'
p778
S'Mandibular Prosthesis'
p779
S'Manipulation, Orthopedic'
p780
S'Manometry'
p781
S'Manual Communication'
p782
S'Markov Chains'
p783
S'Masks'
p784
S'Mass Chest X-Ray'
p785
S'Gas Chromatography-Mass Spectrometry'
p786
S'Mass Screening'
p787
S'Massage'
p788
S'Mastectomy'
p789
S'Materials Testing'
p790
S'Maternal Mortality'
p791
S'Matrix Bands'
p792
S'Maxillofacial Prosthesis'
p793
S'Maximal Expiratory Flow Rate'
p794
S'Maximal Expiratory Flow-Volume Curves'
p795
S'Maximal Midexpiratory Flow Rate'
p796
S'Maximal Voluntary Ventilation'
p797
S'Mediastinoscopy'
p798
S'Medical History Taking'
p799
S'Medical Record Linkage'
p800
S'Medical Records'
p801
S'Medical Records, Problem-Oriented'
p802
S'Medication Errors'
p803
S'Medicine, Arabic'
p804
S'Medicine, Ayurvedic'
p805
S'Medicine, Chinese Traditional'
p806
S'Phytotherapy'
p807
S'Medicine, East Asian Traditional'
p808
S'Medicine, Traditional'
p809
S'Melanoma, Experimental'
p810
S'Mental Healing'
p811
S'Metabolic Clearance Rate'
p812
S'Methods'
p813
S'Metric System'
p814
S'Microbial Sensitivity Tests'
p815
S'Microbiological Techniques'
p816
S'Microchemistry'
p817
S'Microelectrodes'
p818
S'Microinjections'
p819
S'Micromanipulation'
p820
S'Micropore Filters'
p821
S'Microradiography'
p822
S'Microscopy'
p823
S'Microscopy, Electron'
p824
S'Microscopy, Electron, Scanning'
p825
S'Microscopy, Fluorescence'
p826
S'Microscopy, Interference'
p827
S'Microscopy, Phase-Contrast'
p828
S'Microscopy, Polarization'
p829
S'Microscopy, Ultraviolet'
p830
S'Microspheres'
p831
S'Microsurgery'
p832
S'Microtomy'
p833
S'Middle Ear Ventilation'
p834
S'Investigative Techniques'
p835
S'Mitotic Index'
p836
S'Models, Biological'
p837
S'Models, Cardiovascular'
p838
S'Models, Chemical'
p839
S'Models, Genetic'
p840
S'Models, Molecular'
p841
S'Models, Neurological'
p842
S'Models, Psychological'
p843
S'Models, Theoretical'
p844
S'Monitoring, Physiologic'
p845
S'Monte Carlo Method'
p846
S'Morbidity'
p847
S'Mortality'
p848
S'Mouth Protectors'
p849
S'Mouth Rehabilitation'
p850
S'Moxibustion'
p851
S'Mucociliary Clearance'
p852
S'Mud Therapy'
p853
S'Multiphasic Screening'
p854
S'Muscle Denervation'
p855
S'Music Therapy'
p856
S'Mutagenicity Tests'
p857
S'Myelography'
p858
S'Myocardial Revascularization'
p859
S'Myography'
p860
S'Myringoplasty'
p861
S'Nasal Provocation Tests'
p862
S'Naturopathy'
p863
S'Nebulizers and Vaporizers'
p864
S'Needles'
p865
S'Neoplasm Staging'
p866
S'Neoplasm Transplantation'
p867
S'Neoplasms, Experimental'
p868
S'Nephelometry and Turbidimetry'
p869
S'Nephrectomy'
p870
S'Nephrostomy, Percutaneous'
p871
S'Nerve Block'
p872
S'Nerve Crush'
p873
S'Neuritis, Autoimmune, Experimental'
p874
S'Neuroleptanalgesia'
p875
S'Neurologic Examination'
p876
S'Neuroradiography'
p877
S'Neutralization Tests'
p878
S'Neutron Activation Analysis'
p879
S'Night Care'
p880
S'Magnetic Resonance Spectroscopy'
p881
S'Nuclear Reactors'
p882
S'Nucleic Acid Denaturation'
p883
S'Nucleic Acid Hybridization'
p884
S'Nucleotide Mapping'
p885
S'Nursing Care'
p886
S'Nursing Records'
p887
S'Nutrition Surveys'
p888
S'Obesity'
p889
S'Obesity, Morbid'
p890
S'Obstetrical Forceps'
p891
S'Occlusive Dressings'
p892
S'Occult Blood'
p893
S'Occultism'
p894
S'Occupational Therapy'
p895
S'Odontometry'
p896
S'Ophthalmodynamometry'
p897
S'Ophthalmoscopy'
p898
S'Optical Rotatory Dispersion'
p899
S'Oral Hygiene'
p900
S'Oral Hygiene Index'
p901
S'Orchiectomy'
p902
S'Organ Culture Techniques'
p903
S'Organ Preservation'
p904
S'Organ Size'
p905
S'Organotherapy'
p906
S'Orthodontic Appliances'
p907
S'Orthodontic Appliances, Removable'
p908
S'Orthodontic Wires'
p909
S'Orthodontics'
p910
S'Orthodontics, Corrective'
p911
S'Orthodontics, Interceptive'
p912
S'Orthodontics, Preventive'
p913
S'Orthomolecular Therapy'
p914
S'Orthopedic Equipment'
p915
S'Orthopedic Fixation Devices'
p916
S'Orthoptics'
p917
S'Orthotic Devices'
p918
S'Oscillometry'
p919
S'Osmotic Fragility'
p920
S'Ossicular Prosthesis'
p921
S'Osteotomy'
p922
S'Ostomy'
p923
S'Ovarian Function Tests'
p924
S'Ovariectomy'
p925
S'Ovulation Detection'
p926
S'Ovulation Induction'
p927
S'Oximetry'
p928
S'Oxygen Inhalation Therapy'
p929
S'Oxygenators'
p930
S'Oxygenators, Membrane'
p931
S'Pacemaker, Artificial'
p932
S'Pain Measurement'
p933
S'Palatal Expansion Technique'
p934
S'Palatal Obturators'
p935
S'Palliative Care'
p936
S'Palpation'
p937
S'Pancreatectomy'
p938
S'Pancreatic Function Tests'
p939
S'Pancreaticojejunostomy'
p940
S'Parabiosis'
p941
S'Parasite Egg Count'
p942
S'Parenteral Nutrition'
p943
S'Parenteral Nutrition, Total'
p944
S'Partial Thromboplastin Time'
p945
S'Particle Accelerators'
p946
S'Passive Cutaneous Anaphylaxis'
p947
S'Patch Tests'
p948
S'Pathology, Oral'
p949
S'Patient Admission'
p950
S'Patient Discharge'
p951
S'Patient Isolation'
p952
S'Patient Isolators'
p953
S'Patient Readmission'
p954
S'Patient Transfer'
p955
S'Peak Expiratory Flow Rate'
p956
S'Pedigree'
p957
S'Pelvic Exenteration'
p958
S'Pelvimetry'
p959
S'Peptide Mapping'
p960
S'Percussion'
p961
S'Perfusion'
p962
S'Chemotherapy, Cancer, Regional Perfusion'
p963
S'Pericardial Window Techniques'
p964
S'Pericardiectomy'
p965
S'Periodic Acid-Schiff Reaction'
p966
S'Periodontal Dressings'
p967
S'Periodontal Index'
p968
S'Periodontal Prosthesis'
p969
S'Periodontal Splints'
p970
S'Periodontics'
p971
S'Peritoneal Dialysis'
p972
S'Peritoneal Dialysis, Continuous Ambulatory'
p973
S'Peritoneal Lavage'
p974
S'Laparoscopy'
p975
S'Peritoneovenous Shunt'
p976
S'Pessaries'
p977
S'Pharyngectomy'
p978
S'Pharyngostomy'
p979
S'Phlebography'
p980
S'Phonocardiography'
p981
S'Photic Stimulation'
p982
S'Photochemotherapy'
p983
S'Photofluorography'
p984
S'Photogrammetry'
p985
S'Photography'
p986
S'Photometry'
p987
S'Photomicrography'
p988
S'Phototherapy'
p989
S'Physical Conditioning, Animal'
p990
S'Physical Examination'
p991
S'Physical Stimulation'
p992
S'Physiognomy'
p993
S'Pigmentation'
p994
S'Pilot Projects'
p995
S'Pituitary Function Tests'
p996
S'Pituitary Irradiation'
p997
S'Pituitary-Adrenal Function Tests'
p998
S'Placebos'
p999
S'Placental Function Tests'
p1000
S'Viral Plaque Assay'
p1001
S'Plasma Exchange'
p1002
S'Plasmapheresis'
p1003
S'Platelet Count'
p1004
S'Platelet Function Tests'
p1005
S'Plateletpheresis'
p1006
S'Play Therapy'
p1007
S'Plethysmography'
p1008
S'Plethysmography, Impedance'
p1009
S'Plethysmography, Whole Body'
p1010
S'Pneumoencephalography'
p1011
S'Pneumomediastinum, Diagnostic'
p1012
S'Pneumonectomy'
p1013
S'Pneumonolysis'
p1014
S'Pneumoperitoneum, Artificial'
p1015
S'Pneumoradiography'
p1016
S'Pneumothorax, Artificial'
p1017
S'Polarography'
p1018
S'Population Surveillance'
p1019
S'Portacaval Shunt, Surgical'
p1020
S'Portasystemic Shunt, Surgical'
p1021
S'Portoenterostomy, Hepatic'
p1022
S'Portography'
p1023
S'Positive-Pressure Respiration'
p1024
S'Post and Core Technique'
p1025
S'Postnatal Care'
p1026
S'Postoperative Care'
p1027
S'Postoperative Period'
p1028
S'Potentiometry'
p1029
S'Power Plants'
p1030
S'Electric Power Supplies'
p1031
S'Preanesthetic Medication'
p1032
S'Chemical Precipitation'
p1033
S'Precipitin Tests'
p1034
S'Predictive Value of Tests'
p1035
S'Pregnancy Outcome'
p1036
S'Pregnancy Tests'
p1037
S'Pregnancy Tests, Immunologic'
p1038
S'Premarital Examinations'
p1039
S'Premedication'
p1040
S'Prenatal Care'
p1041
S'Prenatal Diagnosis'
p1042
S'Preoperative Care'
p1043
S'Drug Prescriptions'
p1044
S'Preservation, Biological'
p1045
S'Preventive Dentistry'
p1046
S'Probability'
p1047
S'Proctoscopy'
p1048
S'Product Surveillance, Postmarketing'
p1049
S'Prognosis'
p1050
S'Prospective Studies'
p1051
S'Prostatectomy'
p1052
S'Prosthesis Design'
p1053
S'Prosthesis Failure'
p1054
S'Prosthodontics'
p1055
S'Protective Clothing'
p1056
S'Protective Devices'
p1057
S'Protein Denaturation'
p1058
S'Prothrombin Time'
p1059
S'Prussian Blue Reaction'
p1060
S'Psychoacoustics'
p1061
S'Psychodrama'
p1062
S'Psychophysics'
p1063
S'Psychophysiology'
p1064
S'Psychosurgery'
p1065
S'Pulmonary Diffusing Capacity'
p1066
S'Pulmonary Gas Exchange'
p1067
S'Pulpectomy'
p1068
S'Pulpotomy'
p1069
S'Pulse'
p1070
S'Pulse Radiolysis'
p1071
S'Punctures'
p1072
S'PUVA Therapy'
p1073
S'Questionnaires'
p1074
S'Radiation Dosage'
p1075
S'Radiation Injuries, Experimental'
p1076
S'Radiation Monitoring'
p1077
S'Radiesthesia'
p1078
S'Radioallergosorbent Test'
p1079
S'Radiographic Image Enhancement'
p1080
S'Radiographic Image Interpretation, Computer-Assisted'
p1081
S'Radiographic Magnification'
p1082
S'Radiography'
p1083
S'Radiography, Abdominal'
p1084
S'Radiography, Dental'
p1085
S'Radiography, Panoramic'
p1086
S'Radioimmunoassay'
p1087
S'Radioimmunosorbent Test'
p1088
S'Radioisotope Dilution Technique'
p1089
S'Radioisotope Renography'
p1090
S'Radioisotope Teletherapy'
p1091
S'Radioligand Assay'
p1092
S'Radiometry'
p1093
S'Radionuclide Angiography'
p1094
S'Radionuclide Generators'
p1095
S'Radionuclide Imaging'
p1096
S'Radiotherapy'
p1097
S'Radiotherapy Dosage'
p1098
S'Radiotherapy Planning, Computer-Assisted'
p1099
S'Radiotherapy, Computer-Assisted'
p1100
S'Radiotherapy, High-Energy'
p1101
S'Random Allocation'
p1102
S'Reagent Kits, Diagnostic'
p1103
S'Reagent Strips'
p1104
S'Records as Topic'
p1105
S'Recruitment Detection, Audiologic'
p1106
S'Reference Standards'
p1107
S'Reference Values'
p1108
S'Reflex'
p1109
S'Reflex, Abdominal'
p1110
S'Reflex, Abnormal'
p1111
S'Reflex, Acoustic'
p1112
S'Reflex, Pupillary'
p1113
S'Reflex, Stretch'
p1114
S'Reflexotherapy'
p1115
S'Refraction, Ocular'
p1116
S'Refractometry'
p1117
S'Refrigeration'
p1118
S'Registries'
p1119
S'Regression Analysis'
p1120
S'Rehabilitation'
p1121
S'Correction of Hearing Impairment'
p1122
S'Rehabilitation of Speech and Language Disorders'
p1123
S'Rehabilitation, Vocational'
p1124
S'Rejuvenation'
p1125
S'Relaxation Therapy'
p1126
S'Remission Induction'
p1127
S'Reoperation'
p1128
S'Replantation'
p1129
S'Reproductive Techniques'
p1130
S'Research Design'
p1131
S'Residual Volume'
p1132
S'Respiration, Artificial'
p1133
S'Ventilators, Mechanical'
p1134
S'Pulmonary Ventilation'
p1135
S'Respiratory Function Tests'
p1136
S'Respiratory Protective Devices'
p1137
S'Respiratory Sounds'
p1138
S'Respiratory Therapy'
p1139
S'Respite Care'
p1140
S'Restraint, Physical'
p1141
S'Resuscitation'
p1142
S'Retrograde Obturation'
p1143
S'Retrospective Studies'
p1144
S'Rheology'
p1145
S'Rhinoplasty'
p1146
S'Natural Family Planning Methods'
p1147
S'Risk'
p1148
S'Risk Factors'
p1149
S'ROC Curve'
p1150
S'Role Playing'
p1151
S'Root Canal Obturation'
p1152
S'Root Canal Therapy'
p1153
S'Rosette Formation'
p1154
S'Salpingostomy'
p1155
S'Sampling Studies'
p1156
S'Sarcoma, Experimental'
p1157
S'Dental Scaling'
p1158
S'Scattering, Radiation'
p1159
S'Schilling Test'
p1160
S'Scintillation Counting'
p1161
S'Scleral Buckling'
p1162
S'Sclerostomy'
p1163
S'Seat Belts'
p1164
S'Self Administration'
p1165
S'Self Care'
p1166
S'Self Medication'
p1167
S'Self-Help Devices'
p1168
S'Semen Preservation'
p1169
S'Semiconductors'
p1170
S'Sensitivity and Specificity'
p1171
S'Sensory Aids'
p1172
S'Serial Extraction'
p1173
S'Serial Passage'
p1174
S'Serologic Tests'
p1175
S'Serotyping'
p1176
S'Severity of Illness Index'
p1177
S'Sex Determination Analysis'
p1178
S'Sex Preselection'
p1179
S'Short-Wave Therapy'
p1180
S'Sialography'
p1181
S'Sigmoidoscopy'
p1182
S'Sign Language'
p1183
S'Skin Pigmentation'
p1184
S'Skin Tests'
p1185
S'Skin Window Technique'
p1186
S'Skinfold Thickness'
p1187
S'Dental Soldering'
p1188
S'Somatotypes'
p1189
S'Sonication'
p1190
S'Sound Spectrography'
p1191
S'Space Maintenance'
p1192
S'Space-Time Clustering'
p1193
S'Specimen Handling'
p1194
S'Spectrometry, Fluorescence'
p1195
S'Spectrometry, Gamma'
p1196
S'Spectrometry, X-Ray Emission'
p1197
S'Spectrophotometry'
p1198
S'Spectrophotometry, Atomic'
p1199
S'Spectrophotometry, Infrared'
p1200
S'Spectrophotometry, Ultraviolet'
p1201
S'Spectrum Analysis'
p1202
S'Mass Spectrometry'
p1203
S'Spectrum Analysis, Raman'
p1204
S'Speech Articulation Tests'
p1205
S'Speech Discrimination Tests'
p1206
S'Speech Production Measurement'
p1207
S'Speech Reception Threshold Test'
p1208
S'Speech Therapy'
p1209
S'Speech, Alaryngeal'
p1210
S'Speech, Esophageal'
p1211
S'Sperm Count'
p1212
S'Sperm Motility'
p1213
S'Sphincterotomy, Transhepatic'
p1214
S'Spinal Fusion'
p1215
S'Spinal Puncture'
p1216
S'Spirometry'
p1217
S'Splenectomy'
p1218
S'Splenorenal Shunt, Surgical'
p1219
S'Splints'
p1220
S'Staining and Labeling'
p1221
S'Stapes Mobilization'
p1222
S'Stapes Surgery'
p1223
S'Startle Reaction'
p1224
S'Statistics as Topic'
p1225
S'Stereotaxic Techniques'
p1226
S'Sterilization Reversal'
p1227
S'Sterilization, Involuntary'
p1228
S'Sterilization, Reproductive'
p1229
S'Sterilization, Tubal'
p1230
S'Stochastic Processes'
p1231
S'Stroke Volume'
p1232
S'Subgingival Curettage'
p1233
S'Subrenal Capsule Assay'
p1234
S'Subtraction Technique'
p1235
S'Suction'
p1236
S'Suggestion'
p1237
S'Superovulation'
p1238
S'Cardiovascular Surgical Procedures'
p1239
S'Digestive System Surgical Procedures'
p1240
S'Otologic Surgical Procedures'
p1241
S'Endocrine Surgical Procedures'
p1242
S'Ophthalmologic Surgical Procedures'
p1243
S'Gynecologic Surgical Procedures'
p1244
S'Pulmonary Surgical Procedures'
p1245
S'Surgical Procedures, Minor'
p1246
S'Obstetric Surgical Procedures'
p1247
S'Surgical Procedures, Operative'
p1248
S'Surgery, Oral'
p1249
S'Oral Surgical Procedures, Preprosthetic'
p1250
S'Otorhinolaryngologic Surgical Procedures'
p1251
S'Urogenital Surgical Procedures'
p1252
S'Urologic Surgical Procedures'
p1253
S'Urologic Surgical Procedures, Male'
p1254
S'Surgical Equipment'
p1255
S'Surgical Flaps'
p1256
S'Surgical Instruments'
p1257
S'Surgical Mesh'
p1258
S'Perioperative Nursing'
p1259
S'Surgical Staplers'
p1260
S'Suture Techniques'
p1261
S'Sutures'
p1262
S'Sympathectomy'
p1263
S'Sympathectomy, Chemical'
p1264
S'Symphysiotomy'
p1265
S'Syphilis Serodiagnosis'
p1266
S'Syringes'
p1267
S'Tampons, Surgical'
p1268
S'Tattooing'
p1269
S'Technology, Dental'
p1270
S'Technology, Pharmaceutical'
p1271
S'Technology, Radiologic'
p1272
S'Telemetry'
p1273
S'Tendon Transfer'
p1274
S'Terminal Care'
p1275
S'Climatotherapy'
p1276
S'Therapeutics'
p1277
S'Therapy, Computer-Assisted'
p1278
S'Thermodilution'
p1279
S'Thermography'
p1280
S'Thermogravimetry'
p1281
S'Thermoluminescent Dosimetry'
p1282
S'Thermometers'
p1283
S'Theta Rhythm'
p1284
S'Thinness'
p1285
S'Radiography, Thoracic'
p1286
S'Thoracoplasty'
p1287
S'Thoracoscopy'
p1288
S'Thoracostomy'
p1289
S'Thoracotomy'
p1290
S'Thrombelastography'
p1291
S'Thrombin Time'
p1292
S'Thymectomy'
p1293
S'Thyroid Function Tests'
p1294
S'Thyroidectomy'
p1295
S'Tidal Volume'
p1296
S'Tissue Adhesives'
p1297
S'Tissue Conditioning (Dental)'
p1298
S'Tissue Preservation'
p1299
S'Tissue Therapy'
p1300
S'Tomography'
p1301
S'Tomography, Emission-Computed'
p1302
S'Tomography, X-Ray'
p1303
S'Tomography, X-Ray Computed'
p1304
S'Tonometry, Ocular'
p1305
S'Tonsillectomy'
p1306
S'Tooth Bleaching'
p1307
S'Tooth Extraction'
p1308
S'Tooth Movement'
p1309
S'Tooth Remineralization'
p1310
S'Tooth Replantation'
p1311
S'Tooth, Artificial'
p1312
S'Toothbrushing'
p1313
S'Total Lung Capacity'
p1314
S'Tourniquets'
p1315
S'Trabeculectomy'
p1316
S'Tracheostomy'
p1317
S'Tracheotomy'
p1318
S'Traction'
p1319
S'Transducers'
p1320
S'Transducers, Pressure'
p1321
S'Transduction, Genetic'
p1322
S'Transfection'
p1323
S'Transformation, Bacterial'
p1324
S'Transillumination'
p1325
S'Transistors, Electronic'
p1326
S'Transplantation'
p1327
S'Transplantation, Autologous'
p1328
S'Transplantation, Heterologous'
p1329
S'Transplantation, Homologous'
p1330
S'Transplantation, Isogeneic'
p1331
S'Transportation of Patients'
p1332
S'Trephining'
p1333
S'Treponema Immobilization Test'
p1334
S'Trusses'
p1335
S'Tuberculin Test'
p1336
S'Tumor Stem Cell Assay'
p1337
S'Tympanoplasty'
p1338
S'Ultracentrifugation'
p1339
S'Ultrafiltration'
p1340
S'Ultrasonography'
p1341
S'Ultrasonic Therapy'
p1342
S'Ultraviolet Therapy'
p1343
S'Ureterostomy'
p1344
S'Urinary Catheterization'
p1345
S'Urinary Diversion'
p1346
S'Urography'
p1347
S'Vaccination'
p1348
S'Vacuum Curettage'
p1349
S'Vacuum Extraction, Obstetrical'
p1350
S'Vaginal Creams, Foams, and Jellies'
p1351
S'Vaginal Smears'
p1352
S'Vagotomy'
p1353
S'Vagotomy, Proximal Gastric'
p1354
S'Valsalva Maneuver'
p1355
S'Vascular Surgical Procedures'
p1356
S'Vasectomy'
p1357
S'Vasovasostomy'
p1358
S'Vectorcardiography'
p1359
S'Diet, Vegetarian'
p1360
S'Pharmaceutical Vehicles'
p1361
S'Ventilation-Perfusion Ratio'
p1362
S'Cerebral Ventriculography'
p1363
S'Ventriculostomy'
p1364
S'Version, Fetal'
p1365
S'Vertical Dimension'
p1366
S'Vestibular Function Tests'
p1367
S'Vestibuloplasty'
p1368
S'Virus Cultivation'
p1369
S'Vision Tests'
p1370
S'Visual Acuity'
p1371
S'Vital Capacity'
p1372
S'Vital Statistics'
p1373
S'Vitrectomy'
p1374
S'Vivisection'
p1375
S'Voice Training'
p1376
S'Walkers'
p1377
S'Weights and Measures'
p1378
S'Wheelchairs'
p1379
S'Whole Blood Coagulation Time'
p1380
S'Whole-Body Counting'
p1381
S'Whole-Body Irradiation'
p1382
S'Work Capacity Evaluation'
p1383
S'Work of Breathing'
p1384
S'X-Ray Diffraction'
p1385
S'X-Ray Film'
p1386
S'X-Ray Intensifying Screens'
p1387
S'X-Ray Therapy'
p1388
S'Xeromammography'
p1389
S'Xeroradiography'
p1390
S'Yoga'
p1391
S'Blotting, Southern'
p1392
S'Tocolysis'
p1393
S'Cardiotocography'
p1394
S'Echocardiography, Doppler'
p1395
S'Immunoblotting'
p1396
S'Blotting, Northern'
p1397
S'Blotting, Western'
p1398
S'Micronucleus Tests'
p1399
S'Monitoring, Immunologic'
p1400
S'Vagotomy, Truncal'
p1401
S'Colony Count, Microbial'
p1402
S'Ganglionectomy'
p1403
S'Electrophoresis, Gel, Two-Dimensional'
p1404
S'Gamete Intrafallopian Transfer'
p1405
S'Lymphatic Irradiation'
p1406
S'Restriction Mapping'
p1407
S'Lipectomy'
p1408
S'Blood Glucose Self-Monitoring'
p1409
S'Chorionic Villi Sampling'
p1410
S'Diffusion Chambers, Culture'
p1411
S'Drug Design'
p1412
S'Carcinogenicity Tests'
p1413
S'Extracorporeal Membrane Oxygenation'
p1414
S'Fluoroimmunoassay'
p1415
S'Meta-Analysis as Topic'
p1416
S'Protein Engineering'
p1417
S'Reproducibility of Results'
p1418
S'Spectroscopy, Mossbauer'
p1419
S'Magnetoencephalography'
p1420
S'Models, Statistical'
p1421
S'Ventilator Weaning'
p1422
S'Glucose Clamp Technique'
p1423
S'Genetic Therapy'
p1424
S'Cohort Studies'
p1425
S'Molecular Probe Techniques'
p1426
S'Multicenter Studies as Topic'
p1427
S'Epidemiologic Research Design'
p1428
S'Contrast Sensitivity'
p1429
S'Vision Screening'
p1430
S'Eye Enucleation'
p1431
S'Analgesia, Epidural'
p1432
S'Rhytidoplasty'
p1433
S'Infant Equipment'
p1434
S'Bacterial Typing Techniques'
p1435
S'Biosensing Techniques'
p1436
S'Gastric Bypass'
p1437
S'Gastroplasty'
p1438
S'Program Evaluation'
p1439
S'Mastectomy, Radical'
p1440
S'Mastectomy, Extended Radical'
p1441
S'Mastectomy, Modified Radical'
p1442
S'Mastectomy, Segmental'
p1443
S'Mastectomy, Simple'
p1444
S'Mastectomy, Subcutaneous'
p1445
S'Reperfusion'
p1446
S'Myocardial Reperfusion'
p1447
S'AIDS Serodiagnosis'
p1448
S'Absorptiometry, Photon'
p1449
S'Surgical Sponges'
p1450
S'Chest Tubes'
p1451
S'HIV Seroprevalence'
p1452
S'Radioimmunoprecipitation Assay'
p1453
S'Basophil Degranulation Test'
p1454
S'Injections, Intralesional'
p1455
S'Geriatric Assessment'
p1456
S'Mohs Surgery'
p1457
S'Observer Variation'
p1458
S'Fluorophotometry'
p1459
S'Microspectrophotometry'
p1460
S'Immunoradiometric Assay'
p1461
S'Nutrition Assessment'
p1462
S'Trauma Severity Indices'
p1463
S'Glasgow Coma Scale'
p1464
S'Injury Severity Score'
p1465
S'Stents'
p1466
S'Serum Bactericidal Test'
p1467
S'Phonophoresis'
p1468
S'Diet, Macrobiotic'
p1469
S'Tissue Expansion Devices'
p1470
S'Tissue Expansion'
p1471
S'Radionuclide Ventriculography'
p1472
S'Gated Blood-Pool Imaging'
p1473
S'Radiography, Interventional'
p1474
S'Ventriculography, First-Pass'
p1475
S'Cystectomy'
p1476
S'Acupuncture Analgesia'
p1477
S'Acupuncture Points'
p1478
S'Acupuncture Therapy'
p1479
S'Electroacupuncture'
p1480
S'Electrocardiography, Ambulatory'
p1481
S'Substance Abuse Detection'
p1482
S'Tomography Scanners, X-Ray Computed'
p1483
S'Tomography, Emission-Computed, Single-Photon'
p1484
S'Radiography, Dual-Energy Scanned Projection'
p1485
S'Angiography, Digital Subtraction'
p1486
S'Gamma Cameras'
p1487
S'Moire Topography'
p1488
S'Biliopancreatic Diversion'
p1489
S'Gastric Balloon'
p1490
S'Angioplasty, Balloon, Coronary'
p1491
S'Hysteroscopy'
p1492
S'Counterpulsation'
p1493
S'Sclerotherapy'
p1494
S'Thrombolytic Therapy'
p1495
S'Chelation Therapy'
p1496
S'Estrogen Replacement Therapy'
p1497
S'Motion Therapy, Continuous Passive'
p1498
S'Drainage, Postural'
p1499
S'Penile Prosthesis'
p1500
S'Infusion Pumps, Implantable'
p1501
S'Ventilators, Negative-Pressure'
p1502
S'Gas Scavengers'
p1503
S'Dental Implants'
p1504
S'Blood Pressure Monitors'
p1505
S'Cryopreservation'
p1506
S'Skin Test End-Point Titration'
p1507
S'Intensive Care, Neonatal'
p1508
S'Complement Hemolytic Activity Assay'
p1509
S'Keratoplasty, Penetrating'
p1510
S'Body Mass Index'
p1511
S'Life Tables'
p1512
S'Incidence'
p1513
S'Prevalence'
p1514
S'Survival Rate'
p1515
S'Neonatal Screening'
p1516
S'Abbreviated Injury Scale'
p1517
S'Multivariate Analysis'
p1518
S'Cluster Analysis'
p1519
S'Confidence Intervals'
p1520
S'Discriminant Analysis'
p1521
S'Statistical Distributions'
p1522
S'Chi-Square Distribution'
p1523
S'Binomial Distribution'
p1524
S'Normal Distribution'
p1525
S'Poisson Distribution'
p1526
S'Likelihood Functions'
p1527
S'Linear Models'
p1528
S'Logistic Models'
p1529
S'Proportional Hazards Models'
p1530
S'Odds Ratio'
p1531
S'Least-Squares Analysis'
p1532
S'Survival Analysis'
p1533
S'Epidemiologic Study Characteristics as Topic'
p1534
S'Epidemiologic Studies'
p1535
S'Case-Control Studies'
p1536
S'Bone Transplantation'
p1537
S'Bone Marrow Transplantation'
p1538
S'Heart Transplantation'
p1539
S'Kidney Transplantation'
p1540
S'Liver Transplantation'
p1541
S'Randomized Controlled Trials as Topic'
p1542
S'Intervention Studies'
p1543
S'Pancreas Transplantation'
p1544
S'Seroepidemiologic Studies'
p1545
S'Single-Blind Method'
p1546
S'Skin Transplantation'
p1547
S'Corneal Transplantation'
p1548
S'Lung Transplantation'
p1549
S'Heart-Lung Transplantation'
p1550
S'Transplantation, Heterotopic'
p1551
S'Analgesia, Patient-Controlled'
p1552
S'Range of Motion, Articular'
p1553
S'Sorption Detoxification'
p1554
S'Enterosorption'
p1555
S'Vaginal Birth after Cesarean'
p1556
S'Nerve Transfer'
p1557
S'Endoscopy, Gastrointestinal'
p1558
S'Parathyroidectomy'
p1559
S'Immunophenotyping'
p1560
S'Polymerase Chain Reaction'
p1561
S'Endoscopy, Digestive System'
p1562
S'DNA Fingerprinting'
p1563
S'Ultrasonography, Prenatal'
p1564
S'Ultrasonography, Mammary'
p1565
S'Immunotherapy, Adoptive'
p1566
S'Fluorescence Polarization Immunoassay'
p1567
S'Immunotherapy, Active'
p1568
S'Cytapheresis'
p1569
S'Microscopy, Scanning Tunneling'
p1570
S'Microscopy, Immunoelectron'
p1571
S'Mutagenesis, Insertional'
p1572
S'External Fixators'
p1573
S'Internal Fixators'
p1574
S'Conscious Sedation'
p1575
S'Models, Nursing'
p1576
S'Mutagenesis, Site-Directed'
p1577
S'Dental Implantation, Subperiosteal'
p1578
S'Radiography, Bitewing'
p1579
S'Centric Relation'
p1580
S'Vena Cava Filters'
p1581
S'Corrosion Casting'
p1582
S'Dental Care for Aged'
p1583
S'Parenteral Nutrition, Home'
p1584
S'Fetal Tissue Transplantation'
p1585
S'Spectrometry, Mass, Fast Atom Bombardment'
p1586
S'Angioplasty, Laser'
p1587
S'Monitoring, Intraoperative'
p1588
S'Medical Records Systems, Computerized'
p1589
S'Self-Examination'
p1590
S'Contact Tracing'
p1591
S'Analgesia, Obstetrical'
p1592
S'Cranial Irradiation'
p1593
S'Organ Transplantation'
p1594
S'Tissue Transplantation'
p1595
S'Denture, Partial, Fixed, Resin-Bonded'
p1596
S'Brain Tissue Transplantation'
p1597
S'Islets of Langerhans Transplantation'
p1598
S'Orthodontic Appliance Design'
p1599
S'Chromosome Walking'
p1600
S'Resuscitation Orders'
p1601
S'Sequence Alignment'
p1602
S'Chemoembolization, Therapeutic'
p1603
S'Mammaplasty'
p1604
S'Bone Marrow Purging'
p1605
S'Urinary Reservoirs, Continent'
p1606
S'Artifacts'
p1607
S'Urinalysis'
p1608
S'Medicine, African Traditional'
p1609
S'Incontinence Pads'
p1610
S'Radioimmunotherapy'
p1611
S'Color Therapy'
p1612
S'Drug Delivery Systems'
p1613
S'Breast Self-Examination'
p1614
S'Fluorescent Treponemal Antibody-Absorption Test'
p1615
S'CD4-CD8 Ratio'
p1616
S'Electrophoresis, Gel, Pulsed-Field'
p1617
S'Mycological Typing Techniques'
p1618
S'Ergometry'
p1619
S'Matched-Pair Analysis'
p1620
S'Crown Lengthening'
p1621
S'Guided Tissue Regeneration, Periodontal'
p1622
S'Hemostasis, Endoscopic'
p1623
S'Parenteral Nutrition, Home Total'
p1624
S'Pancreaticoduodenectomy'
p1625
S'Histocytological Preparation Techniques'
p1626
S'Tissue Embedding'
p1627
S'Paraffin Embedding'
p1628
S'Plastic Embedding'
p1629
S'Cryoultramicrotomy'
p1630
S'Silver Staining'
p1631
S'Negative Staining'
p1632
S'Shadowing (Histology)'
p1633
S'Replica Techniques'
p1634
S'Esophagectomy'
p1635
S'Radiosurgery'
p1636
S'Scleroplasty'
p1637
S'Tissue Fixation'
p1638
S'Sphincterotomy, Endoscopic'
p1639
S'Radioimmunodetection'
p1640
S'Rubber Dams'
p1641
S'Dental Clasps'
p1642
S'Proctocolectomy, Restorative'
p1643
S'Meridians'
p1644
S'Urinary Sphincter, Artificial'
p1645
S'Preconception Care'
p1646
S'Root Planing'
p1647
S'Venous Cutdown'
p1648
S'Boron Neutron Capture Therapy'
p1649
S'Salvage Therapy'
p1650
S'Cardiopulmonary Resuscitation'
p1651
S'Endarterectomy, Carotid'
p1652
S'Culture Media, Serum-Free'
p1653
S'Treatment Outcome'
p1654
S'Drug Monitoring'
p1655
S'Adverse Drug Reaction Reporting Systems'
p1656
S'Orthodontic Brackets'
p1657
S'Blood Component Transfusion'
p1658
S'Dental Debonding'
p1659
S'Flow Injection Analysis'
p1660
S'Coronary Angiography'
p1661
S'Chemotherapy, Adjuvant'
p1662
S'Episode of Care'
p1663
S'Hospice Care'
p1664
S'Hospital Mortality'
p1665
S'Intensive Care'
p1666
S'Models, Econometric'
p1667
S'Small-Area Analysis'
p1668
S'Atherectomy'
p1669
S'Laser Coagulation'
p1670
S'Culture Media, Conditioned'
p1671
S'Laser-Doppler Flowmetry'
p1672
S'Cholecystectomy, Laparoscopic'
p1673
S'Occlusal Splints'
p1674
S'Freeze Substitution'
p1675
S'Catheter Ablation'
p1676
S'Embolectomy'
p1677
S'Angioplasty'
p1678
S'Thrombectomy'
p1679
S'Fuzzy Logic'
p1680
S'Focus Groups'
p1681
S'Models, Educational'
p1682
S'Models, Organizational'
p1683
S'Defibrillators, Implantable'
p1684
S'Infusions, Intraosseous'
p1685
S'Photoplethysmography'
p1686
S'Titrimetry'
p1687
S'Treatment Failure'
p1688
S'Laryngeal Masks'
p1689
S'Blood Patch, Epidural'
p1690
S'Cordocentesis'
p1691
S'Angioplasty, Balloon, Laser-Assisted'
p1692
S'Atherectomy, Coronary'
p1693
S'Orbit Evisceration'
p1694
S'Eye Evisceration'
p1695
S'Suicide, Assisted'
p1696
S'Neutron Capture Therapy'
p1697
S'Enzyme Multiplied Immunoassay Technique'
p1698
S'Dental Prosthesis'
p1699
S'Dental Prosthesis Design'
p1700
S'Dental Prosthesis Retention'
p1701
S'Dental Prosthesis Repair'
p1702
S'Drug Approval'
p1703
S'Air Bags'
p1704
S'Condoms'
p1705
S'Polysomnography'
p1706
S'Ventriculoperitoneal Shunt'
p1707
S'Orthodontic Appliances, Functional'
p1708
S'Clinical Trials, Phase I as Topic'
p1709
S'Clinical Trials, Phase II as Topic'
p1710
S'Clinical Trials, Phase III as Topic'
p1711
S'Clinical Trials, Phase IV as Topic'
p1712
S'Microscopy, Electron, Scanning Transmission'
p1713
S'Echo-Planar Imaging'
p1714
S'Synchrotrons'
p1715
S'Cyclotrons'
p1716
S'Investigational New Drug Application'
p1717
S'Zygote Intrafallopian Transfer'
p1718
S'Epikeratophakia'
p1719
S'In Situ Hybridization'
p1720
S'In Situ Hybridization, Fluorescence'
p1721
S'Sequence Analysis'
p1722
S'Sequence Analysis, DNA'
p1723
S'Sequence Analysis, RNA'
p1724
S'Angioscopy'
p1725
S'Echocardiography, Transesophageal'
p1726
S'Spectroscopy, Fourier Transform Infrared'
p1727
S'Microdialysis'
p1728
S'Surgical Procedures, Elective'
p1729
S'Karnofsky Performance Status'
p1730
S'Gloves, Protective'
p1731
S'Renal Replacement Therapy'
p1732
S'Hemodiafiltration'
p1733
S'Reproductive History'
p1734
S'Ultrasonography, Doppler, Transcranial'
p1735
S'Diskectomy'
p1736
S'Diskectomy, Percutaneous'
p1737
S'Petrosal Sinus Sampling'
p1738
S'Skin Care'
p1739
S'Lithotripsy, Laser'
p1740
S'Signal Detection, Psychological'
p1741
S'Cesarean Section, Repeat'
p1742
S'Hemibody Irradiation'
p1743
S'Cryotherapy'
p1744
S'Cell Transplantation'
p1745
S'Rewarming'
p1746
S'Reticulocyte Count'
p1747
S'Erythrocyte Transfusion'
p1748
S'Leukocyte Transfusion'
p1749
S'Fractals'
p1750
S'Lymphocyte Transfusion'
p1751
S'Nonlinear Dynamics'
p1752
S'Platelet Transfusion'
p1753
S'Molecular Epidemiology'
p1754
S'Ion-Selective Electrodes'
p1755
S'Dental Care for Chronically Ill'
p1756
S'Equipment Reuse'
p1757
S'Prosthesis Fitting'
p1758
S'Autonomic Denervation'
p1759
S'Parasympathectomy'
p1760
S'Skin, Artificial'
p1761
S'Surgical Stapling'
p1762
S'Prosthesis Coloring'
p1763
S'Fatal Outcome'
p1764
S'Nasal Lavage Fluid'
p1765
S'Diagnosis, Dual (Psychiatry)'
p1766
S'Photopheresis'
p1767
S'Gene Transfer Techniques'
p1768
S'Hemorheology'
p1769
S'Ultrasonography, Interventional'
p1770
S'Immunomagnetic Separation'
p1771
S'Electroporation'
p1772
S'Crystallography, X-Ray'
p1773
S'Hematopoietic Stem Cell Transplantation'
p1774
S'Gene Targeting'
p1775
S'Sample Size'
p1776
S'Patch-Clamp Techniques'
p1777
S'Cardiomyoplasty'
p1778
S'SEER Program'
p1779
S'Breast Implants'
p1780
S'Twin Studies as Topic'
p1781
S'Sickness Impact Profile'
p1782
S'Medical Futility'
p1783
S'Models, Immunological'
p1784
S'Filtering Surgery'
p1785
S'Molteno Implants'
p1786
S'Weightlessness Simulation'
p1787
S'Nutritional Support'
p1788
S'Weightlessness Countermeasures'
p1789
S'Disease Notification'
p1790
S'Crown-Rump Length'
p1791
S'Risk Assessment'
p1792
S'Sentinel Surveillance'
p1793
S'Disease-Free Survival'
p1794
S'Patient Selection'
p1795
S'Oocyte Donation'
p1796
S'Uterine Monitoring'
p1797
S'Cross-Over Studies'
p1798
S'Witchcraft'
p1799
S'Epitope Mapping'
p1800
S'Pregnancy Reduction, Multifetal'
p1801
S'Ultrasonography, Doppler'
p1802
S'Heart Bypass, Right'
p1803
S'Heart Bypass, Left'
p1804
S'Microscopy, Confocal'
p1805
S'Ultrasonography, Doppler, Color'
p1806
S'Ultrasonography, Doppler, Duplex'
p1807
S'Ultrasonography, Doppler, Pulsed'
p1808
S'Echocardiography, Doppler, Color'
p1809
S'Echocardiography, Doppler, Pulsed'
p1810
S'Microscopy, Atomic Force'
p1811
S'Spectrometry, Mass, Secondary Ion'
p1812
S'Lymphocyte Count'
p1813
S'Blood Pressure Monitoring, Ambulatory'
p1814
S'Fundoplication'
p1815
S'Ureteroscopy'
p1816
S'Tilt-Table Test'
p1817
S'Monitoring, Ambulatory'
p1818
S'Toxicity Tests'
p1819
S'Pleurodesis'
p1820
S'Orthodontic Retainers'
p1821
S'Statistics, Nonparametric'
p1822
S'Radiotherapy, Adjuvant'
p1823
S'Microscopy, Video'
p1824
S'Home Infusion Therapy'
p1825
S'Fontan Procedure'
p1826
S'Hand Strength'
p1827
S'Perinatal Care'
p1828
S'Diet, Fat-Restricted'
p1829
S'Diet, Protein-Restricted'
p1830
S'Dental Marginal Adaptation'
p1831
S'Bone Demineralization Technique'
p1832
S'Body Surface Potential Mapping'
p1833
S'CD4 Lymphocyte Count'
p1834
S'Device Approval'
p1835
S'Models, Economic'
p1836
S'APACHE'
p1837
S'Magnetic Resonance Angiography'
p1838
S'Controlled Clinical Trials as Topic'
p1839
S'Pregnancy Rate'
p1840
S'Ilizarov Technique'
p1841
S'Chemoprevention'
p1842
S'Bronchoalveolar Lavage'
p1843
S'Photorefractive Keratectomy'
p1844
S'Root Canal Preparation'
p1845
S'Phacoemulsification'
p1846
S'Coculture Techniques'
p1847
S'Cell Culture Techniques'
p1848
S'Kinesiology, Applied'
p1849
S'Phlebotomy'
p1850
S'DNA Footprinting'
p1851
S'Imagery (Psychotherapy)'
p1852
S'Directed Molecular Evolution'
p1853
S'Stethoscopes'
p1854
S'Medicine Chests'
p1855
S'Magnetic Resonance Imaging, Cine'
p1856
S'Spectrometry, Mass, Matrix-Assisted Laser Desorption-Ionization'
p1857
S'Image Cytometry'
p1858
S'Phantoms, Imaging'
p1859
S'Acupressure'
p1860
S'Rhizotomy'
p1861
S'No-Observed-Adverse-Effect Level'
p1862
S'Quality-Adjusted Life Years'
p1863
S'Surgical Procedures, Minimally Invasive'
p1864
S'Facies'
p1865
S'Antibiotic Prophylaxis'
p1866
S'Electrophoresis, Capillary'
p1867
S'Fluorescent Antibody Technique, Indirect'
p1868
S'Fluorescent Antibody Technique, Direct'
p1869
S'Conization'
p1870
S'Circumcision, Female'
p1871
S'Dental Prosthesis, Implant-Supported'
p1872
S'Spin Trapping'
p1873
S'Random Amplified Polymorphic DNA Technique'
p1874
S'Condoms, Female'
p1875
S'Teleradiology'
p1876
S'Meditation'
p1877
S'Therapeutic Touch'
p1878
S'Dental Care for Children'
p1879
S'Neuromuscular Blockade'
p1880
S'Bioreactors'
p1881
S'Paracentesis'
p1882
S'Ischemic Preconditioning, Myocardial'
p1883
S'Endosonography'
p1884
S'Liver, Artificial'
p1885
S'Portasystemic Shunt, Transjugular Intrahepatic'
p1886
S'Transplantation Conditioning'
p1887
S'Mandibular Advancement'
p1888
S'Ischemic Preconditioning'
p1889
S'Tooth Preparation, Prosthodontic'
p1890
S'Dental Restoration Failure'
p1891
S'Retreatment'
p1892
S'Oral Medicine'
p1893
S'Enamel Microabrasion'
p1894
S'Tooth Preparation'
p1895
S'Jaw Fixation Techniques'
p1896
S'Dental Implants, Single-Tooth'
p1897
S'Radiography, Dental, Digital'
p1898
S'Adoptive Transfer'
p1899
S'Spectroscopy, Near-Infrared'
p1900
S'Capnography'
p1901
S'Decompression, Surgical'
p1902
S'Polypharmacy'
p1903
S'Osteotomy, Le Fort'
p1904
S'Aromatherapy'
p1905
S'Medicine, Unani'
p1906
S'Observation'
p1907
S'Pancreas, Artificial'
p1908
S'Clinical Laboratory Techniques'
p1909
S'Hindlimb Suspension'
p1910
S'Shamanism'
p1911
S'Space Suits'
p1912
S'Chronotherapy'
p1913
S'Subacute Care'
p1914
S'Biolistics'
p1915
S'Orthodontic Space Closure'
p1916
S'Health Care Surveys'
p1917
S'Area Under Curve'
p1918
S'Equipment Failure Analysis'
p1919
S'Infection Control, Dental'
p1920
S'Dental Restoration Wear'
p1921
S'Occlusal Adjustment'
p1922
S'Echocardiography, Three-Dimensional'
p1923
S'Echocardiography, Four-Dimensional'
p1924
S'Viral Load'
p1925
S'Dose Fractionation'
p1926
S'Thoracic Surgical Procedures'
p1927
S'Neurosurgical Procedures'
p1928
S'Orthopedic Procedures'
p1929
S'Arthroplasty, Replacement'
p1930
S'Arthroplasty, Replacement, Hip'
p1931
S'Arthroplasty, Replacement, Knee'
p1932
S'Oral Surgical Procedures'
p1933
S'Hematopoietic Stem Cell Mobilization'
p1934
S'Reconstructive Surgical Procedures'
p1935
S'Lens Implantation, Intraocular'
p1936
S'Artificial Gene Fusion'
p1937
S'Diagnostic Equipment'
p1938
S'Otoscopes'
p1939
S'Ophthalmoscopes'
p1940
S'Sphygmomanometers'
p1941
S'Endoscopes'
p1942
S'Prostheses and Implants'
p1943
S'Transplants'
p1944
S'Surgically-Created Structures'
p1945
S'Skeletal Muscle Ventricle'
p1946
S'Axotomy'
p1947
S'Corneal Topography'
p1948
S'Preimplantation Diagnosis'
p1949
S'Defecography'
p1950
S'Osteogenesis, Distraction'
p1951
S'Blepharoplasty'
p1952
S'Nuclear Magnetic Resonance, Biomolecular'
p1953
S'Blood Vessel Prosthesis Implantation'
p1954
S'Heart Valve Prosthesis Implantation'
p1955
S'Prosthesis Implantation'
p1956
S'Biotinylation'
p1957
S'Capsulorhexis'
p1958
S'Embryo Disposition'
p1959
S'Breast Implantation'
p1960
S'Cochlear Implantation'
p1961
S'Mandibular Prosthesis Implantation'
p1962
S'Maxillofacial Prosthesis Implantation'
p1963
S'Ossicular Replacement'
p1964
S'International Normalized Ratio'
p1965
S'Penile Implantation'
p1966
S'Diagnostic Techniques and Procedures'
p1967
S'Amino Acid Substitution'
p1968
S'Clinical Chemistry Tests'
p1969
S'Cloning, Organism'
p1970
S'Perioperative Care'
p1971
S'Implants, Experimental'
p1972
S'Inhibitory Concentration 50'
p1973
S'Reverse Transcriptase Polymerase Chain Reaction'
p1974
S'Physical Chromosome Mapping'
p1975
S'Heteroduplex Analysis'
p1976
S'Chromosome Painting'
p1977
S'Myofunctional Therapy'
p1978
S'Hormone Replacement Therapy'
p1979
S'Radiotherapy, Conformal'
p1980
S'Orbital Implants'
p1981
S'Cryoelectron Microscopy'
p1982
S'In Situ Nick-End Labeling'
p1983
S'Glaucoma Drainage Implants'
p1984
S'Absorbable Implants'
p1985
S'Finite Element Analysis'
p1986
S'Surface Plasmon Resonance'
p1987
S'Neoadjuvant Therapy'
p1988
S'Chromatography, Micellar Electrokinetic Capillary'
p1989
S'Manipulation, Spinal'
p1990
S'Primed In Situ Labeling'
p1991
S'Oligonucleotide Array Sequence Analysis'
p1992
S'Contig Mapping'
p1993
S'Pericardiocentesis'
p1994
S'Xenodiagnosis'
p1995
S'Microscopy, Scanning Probe'
p1996
S'Video-Assisted Surgery'
p1997
S'Sequence Analysis, Protein'
p1998
S'Pulse Therapy, Drug'
p1999
S'Comet Assay'
p2000
S'Sperm Injections, Intracytoplasmic'
p2001
S'Neurolinguistic Programming'
p2002
S'Fetal Weight'
p2003
S'Combinatorial Chemistry Techniques'
p2004
S'Fetoscopes'
p2005
S'Angioscopes'
p2006
S'Microscopic Angioscopy'
p2007
S'Arthroscopes'
p2008
S'Bronchoscopes'
p2009
S'Colposcopes'
p2010
S'Culdoscopes'
p2011
S'Cystoscopes'
p2012
S'Colonoscopes'
p2013
S'Sigmoidoscopes'
p2014
S'Duodenoscopes'
p2015
S'Gastroscopes'
p2016
S'Proctoscopes'
p2017
S'Esophagoscopes'
p2018
S'Hysteroscopes'
p2019
S'Laryngoscopes'
p2020
S'Laparoscopes'
p2021
S'Mediastinoscopes'
p2022
S'Thoracoscopes'
p2023
S'Ureteroscopes'
p2024
S'Maximum Tolerated Dose'
p2025
S'Myasthenia Gravis, Autoimmune, Experimental'
p2026
S'Nervous System Autoimmune Disease, Experimental'
p2027
S'Transurethral Resection of Prostate'
p2028
S'Keratomileusis, Laser In Situ'
p2029
S'Cytogenetic Analysis'
p2030
S'Thoracic Surgery, Video-Assisted'
p2031
S'Endoscopes, Gastrointestinal'
p2032
S'Two-Hybrid System Techniques'
p2033
S'Acupuncture, Ear'
p2034
S'Medicine, Kampo'
p2035
S'Tissue and Organ Harvesting'
p2036
S'Gene Expression Profiling'
p2037
S'Device Removal'
p2038
S'Hysterotomy'
p2039
S'Colpotomy'
p2040
S'Air Abrasion, Dental'
p2041
S'Liquid Ventilation'
p2042
S'Radiation Hybrid Mapping'
p2043
S'Branched DNA Signal Amplification Assay'
p2044
S'Nucleic Acid Amplification Techniques'
p2045
S'Self-Sustained Sequence Replication'
p2046
S'Spectrometry, Mass, Electrospray Ionization'
p2047
S'Parasitic Sensitivity Tests'
p2048
S'Ribotyping'
p2049
S'Bioartificial Organs'
p2050
S'Imaging, Three-Dimensional'
p2051
S'Sentinel Lymph Node Biopsy'
p2052
S'Balloon Occlusion'
p2053
S'Electrophysiologic Techniques, Cardiac'
p2054
S'Ligase Chain Reaction'
p2055
S'Advanced Cardiac Life Support'
p2056
S'Xenograft Model Antitumor Assays'
p2057
S'Antiretroviral Therapy, Highly Active'
p2058
S'Glasgow Outcome Scale'
p2059
S'Nuclease Protection Assays'
p2060
S'Protein Footprinting'
p2061
S'Endpoint Determination'
p2062
S'Toxicity Tests, Acute'
p2063
S'Animal Use Alternatives'
p2064
S'Models, Animal'
p2065
S'Skin Irritancy Tests'
p2066
S'Local Lymph Node Assay'
p2067
S'Directly Observed Therapy'
p2068
S'Cerclage, Cervical'
p2069
S'Limb Salvage'
p2070
S'Tissue Engineering'
p2071
S'Rhinometry, Acoustic'
p2072
S'Photography, Dental'
p2073
S'Colonography, Computed Tomographic'
p2074
S'Second-Look Surgery'
p2075
S'Electrophoretic Mobility Shift Assay'
p2076
S'Antineoplastic Protocols'
p2077
S'Leeching'
p2078
S'Hirudin Therapy'
p2079
S'Biomedical Enhancement'
p2080
S'Genetic Enhancement'
p2081
S'Molecular Diagnostic Techniques'
p2082
S'Surgery, Computer-Assisted'
p2083
S'Principal Component Analysis'
p2084
S'Rhinomanometry'
p2085
S'Echocardiography, Stress'
p2086
S'Chromatography, Supercritical Fluid'
p2087
S'Protein Interaction Mapping'
p2088
S'Musculoskeletal Manipulations'
p2089
S'Exercise Movement Techniques'
p2090
S'Manipulation, Osteopathic'
p2091
S'Tai Ji'
p2092
S'Sensory Art Therapies'
p2093
S'Mind-Body Therapies'
p2094
S'Spiritual Therapies'
p2095
S'Blotting, Far-Western'
p2096
S'Blotting, Southwestern'
p2097
S'Physical Therapy Modalities'
p2098
S'Manipulation, Chiropractic'
p2099
S'Laughter Therapy'
p2100
S'Eclecticism, Historical'
p2101
S'Reproductive Techniques, Assisted'
p2102
S'Laser Therapy, Low-Level'
p2103
S'Euthanasia, Active'
p2104
S'Withholding Treatment'
p2105
S'Steam Bath'
p2106
S'Faith Healing'
p2107
S'Caloric Restriction'
p2108
S'Fractionation, Field Flow'
p2109
S'Fluorescence Resonance Energy Transfer'
p2110
S'Mass Vaccination'
p2111
S'DNA Shuffling'
p2112
S'Spectral Karyotyping'
p2113
S'Animal Experimentation'
p2114
S'Autoexperimentation'
p2115
S'Behavior Control'
p2116
S'Iridectomy'
p2117
S'Embryo Research'
p2118
S'Fetal Research'
p2119
S'Euthanasia, Active, Voluntary'
p2120
S'Incidental Findings'
p2121
S'Narration'
p2122
S'Nontherapeutic Human Experimentation'
p2123
S'Powder Diffraction'
p2124
S'Neutron Diffraction'
p2125
S'Microscopy, Acoustic'
p2126
S'Stem Cell Transplantation'
p2127
S'Ovulation Inhibition'
p2128
S'Anonymous Testing'
p2129
S'Control Groups'
p2130
S'Uncertainty'
p2131
S'Chest Wall Oscillation'
p2132
S'Therapies, Investigational'
p2133
S'Research Embryo Creation'
p2134
S'Cord Blood Stem Cell Transplantation'
p2135
S'Peripheral Blood Stem Cell Transplantation'
p2136
S'Therapeutic Human Experimentation'
p2137
S'Toxicity Tests, Chronic'
p2138
S'Metered Dose Inhalers'
p2139
S'Infusions, Intralesional'
p2140
S'Inhalation Spacers'
p2141
S'Tomography, Spiral Computed'
p2142
S'Microscopy, Fluorescence, Multiphoton'
p2143
S'Fluorescence Recovery After Photobleaching'
p2144
S'Ultrasound, High-Intensity Focused, Transrectal'
p2145
S'Delivery, Obstetric'
p2146
S'Posthumous Conception'
p2147
S'Euthanasia, Animal'
p2148
S'Neck Dissection'
p2149
S'Auditory Brain Stem Implants'
p2150
S'Auditory Brain Stem Implantation'
p2151
S'Virus Inactivation'
p2152
S'Neuronavigation'
p2153
S'Hemispherectomy'
p2154
S'Diet, Mediterranean'
p2155
S'Anterior Temporal Lobectomy'
p2156
S'Diffusion Magnetic Resonance Imaging'
p2157
S'Otoscopy'
p2158
S'Colonic Pouches'
p2159
S'Protein Array Analysis'
p2160
S'Behavioral Risk Factor Surveillance System'
p2161
S'Absorbent Pads'
p2162
S'Pacifiers'
p2163
S'Diapers, Infant'
p2164
S'Diapers, Adult'
p2165
S'Tomography, Optical'
p2166
S'Tomography, Optical Coherence'
p2167
S'Deuterium Exchange Measurement'
p2168
S'Contraception, Barrier'
p2169
S'Early Diagnosis'
p2170
S'Retinoscopes'
p2171
S'Retinoscopy'
p2172
S'Microdissection'
p2173
S'Microfluidics'
p2174
S'Contraception, Postcoital'
p2175
S'Vaginal Douching'
p2176
S'Ovulation Prediction'
p2177
S'Neuroendoscopes'
p2178
S'Neuroendoscopy'
p2179
S'Nutrition Therapy'
p2180
S'Biopsy, Fine-Needle'
p2181
S'Cervicoplasty'
p2182
S'Mesenchymal Stem Cell Transplantation'
p2183
S'Flowmeters'
p2184
S'Continuous Positive Airway Pressure'
p2185
S'Microbubbles'
p2186
S'Rotarod Performance Test'
p2187
S'Dental Etching'
p2188
S'Quantum Dots'
p2189
S'Microscopy, Energy-Filtering Transmission Electron'
p2190
S'Fetal Therapies'
p2191
S'Donor Selection'
p2192
S'Embryo Culture Techniques'
p2193
S'Dermoscopy'
p2194
S'Microchip Analytical Procedures'
p2195
S'Electrophoresis, Microchip'
p2196
S'Microfluidic Analytical Techniques'
p2197
S'Microarray Analysis'
p2198
S'Body Piercing'
p2199
S'Body Modification, Non-Therapeutic'
p2200
S'Culture Techniques'
p2201
S'Tissue Culture Techniques'
p2202
S'Microscopy, Electron, Transmission'
p2203
S'Spectroscopy, Electron Energy-Loss'
p2204
S'Child Mortality'
p2205
S'Fetal Mortality'
p2206
S'Deep Brain Stimulation'
p2207
S'Tissue Array Analysis'
p2208
S'Bandages, Hydrocolloid'
p2209
S'Tumor Burden'
p2210
S'Chromatin Immunoprecipitation'
p2211
S'Immunoprecipitation'
p2212
S'Defibrillators'
p2213
S'Coronary Artery Bypass, Off-Pump'
p2214
S'Laser Scanning Cytometry'
p2215
S'Leukocyte Reduction Procedures'
p2216
S'Guided Tissue Regeneration'
p2217
S'Nuchal Translucency Measurement'
p2218
S'Intermittent Pneumatic Compression Devices'
p2219
S'Corneal Surgery, Laser'
p2220
S'Keratectomy, Subepithelial, Laser-Assisted'
p2221
S'Bariatrics'
p2222
S'Positron-Emission Tomography'
p2223
S'Cholangiopancreatography, Magnetic Resonance'
p2224
S'Nomograms'
p2225
S'Stroboscopy'
p2226
S'Body Size'
p2227
S'Waist-Hip Ratio'
p2228
S'Dendrimers'
p2229
S'Bariatric Surgery'
p2230
S'Oncolytic Virotherapy'
p2231
S'Adiposity'
p2232
S'Overweight'
p2233
S'Body Fat Distribution'
p2234
S'Bone-Patellar Tendon-Bone Graft'
p2235
S'Cold Ischemia'
p2236
S'Radiotherapy, Intensity-Modulated'
p2237
S'Diet, Carbohydrate-Restricted'
p2238
S'Transcranial Magnetic Stimulation'
p2239
S'Esophageal pH Monitoring'
p2240
S'Cryoanesthesia'
p2241
S'Gastric Hypothermia'
p2242
S'Circulatory Arrest, Deep Hypothermia Induced'
p2243
S'Orthodontic Extrusion'
p2244
S'Arthroplasty, Replacement, Finger'
p2245
S'Split-Brain Procedure'
p2246
S'Basic Reproduction Number'
p2247
S'Digital Rectal Examination'
p2248
S'Whole Body Imaging'
p2249
S'Warm Ischemia'
p2250
S'SELEX Aptamer Technique'
p2251
S'Orthodontic Anchorage Procedures'
p2252
S'Targeted Gene Repair'
p2253
S'Menstrual Hygiene Products'
p2254
S'Muscle Stretching Exercises'
p2255
S'Pinch Strength'
p2256
S'Solid Phase Extraction'
p2257
S'Solid Phase Microextraction'
p2258
S'Optical Tweezers'
p2259
S'Disk Diffusion Antimicrobial Tests'
p2260
S'Analytic Sample Preparation Methods'
p2261
S'Kaplan-Meier Estimate'
p2262
S'Suture Anchors'
p2263
S'Eye Movement Measurements'
p2264
S'Feminine Hygiene Products'
p2265
S'Muscle Strength'
p2266
S'Muscle Strength Dynamometer'
p2267
S'Arthrometry, Articular'
p2268
S'Sperm Retrieval'
p2269
S'Nuclear Transfer Techniques'
p2270
S'Tenodesis'
p2271
S'Electrochemotherapy'
p2272
S'Laser Therapy'
p2273
S'Capsule Endoscopy'
p2274
S'Capsule Endoscopes'
p2275
S'Cystotomy'
p2276
S'Tandem Mass Spectrometry'
p2277
S'Nanocapsules'
p2278
S'Magnetic Resonance Imaging, Interventional'
p2279
S'Magnetocardiography'
p2280
S'Capillary Electrochromatography'
p2281
S'Suburethral Slings'
p2282
S'Stockings, Compression'
p2283
S'Surgical Fixation Devices'
p2284
S'Surgical Tape'
p2285
S'Scattering, Small Angle'
p2286
S'Electroosmosis'
p2287
S'Lasers, Solid-State'
p2288
S'Pallidotomy'
p2289
S'Lasers, Excimer'
p2290
S'Lasers, Gas'
p2291
S'Lasers, Semiconductor'
p2292
S'Lasers, Dye'
p2293
S'Nanospheres'
p2294
S'Phakic Intraocular Lenses'
p2295
S'Refractive Surgical Procedures'
p2296
S'Orthokeratologic Procedures'
p2297
S'Perinatal Mortality'
p2298
S'Oocyte Retrieval'
p2299
S'Cell Migration Assays, Leukocyte'
p2300
S'Cell Migration Assays, Macrophage'
p2301
S'Cell Migration Assays'
p2302
S'Facial Transplantation'
p2303
S'Tissue Scaffolds'
p2304
S'Amplified Fragment Length Polymorphism Analysis'
p2305
S'Elasticity Imaging Techniques'
p2306
S'Arthroplasty, Subchondral'
p2307
S'Cervical Length Measurement'
p2308
S'Drug Dosage Calculations'
p2309
S'Molecular Imprinting'
p2310
S'Deep Sedation'
p2311
S'Negative-Pressure Wound Therapy'
p2312
S'Vertebroplasty'
p2313
S'Drug-Eluting Stents'
p2314
S'Sex Determination by Skeleton'
p2315
S'Cone-Beam Computed Tomography'
p2316
S'Spiral Cone-Beam Computed Tomography'
p2317
S'Validation Studies as Topic'
p2318
S'Ablation Techniques'
p2319
S'Comparative Genomic Hybridization'
p2320
S'Electron Microscope Tomography'
p2321
S'Diet, Gluten-Free'
p2322
S'Athletic Tape'
p2323
S'Terahertz Spectroscopy'
p2324
S'Terahertz Imaging'
p2325
S'Resistance Training'
p2326
S'Early Detection of Cancer'
p2327
S'Optical Devices'
p2328
S'Auriculotherapy'
p2329
S'Optical Fibers'
p2330
S'Semen Analysis'
p2331
S'Hypodermoclysis'
p2332
S'Infusions, Subcutaneous'
p2333
S'Waist Circumference'
p2334
S'Genome-Wide Association Study'
p2335
S'Ankle Brachial Index'
p2336
S'Radiometric Dating'
p2337
S'X-Ray Microtomography'
p2338
S'Light-Curing of Dental Adhesives'
p2339
S'Self-Curing of Dental Resins'
p2340
S'Curing Lights, Dental'
p2341
S'Speleotherapy'
p2342
S'Nerve Expansion'
p2343
S'Endometrial Ablation Techniques'
p2344
S'Uterine Artery Embolization'
p2345
S'Myocardial Perfusion Imaging'
p2346
S'Perfusion Imaging'
p2347
S'Ketogenic Diet'
p2348
S'Cardiac-Gated Imaging Techniques'
p2349
S'Respiratory-Gated Imaging Techniques'
p2350
S'Cardiac-Gated Single-Photon Emission Computer-Assisted Tomography'
p2351
S'Vagus Nerve Stimulation'
p2352
S'Nasal Lavage'
p2353
S'Electrical Equipment and Supplies'
p2354
S'Micro-Electrical-Mechanical Systems'
p2355
S'Radiation Equipment and Supplies'
p2356
S'Electrochemical Techniques'
p2357
S'Medicine, Korean Traditional'
p2358
S'Viscosupplementation'
p2359
S'Metabolic Equivalent'
p2360
S'Interpleural Analgesia'
p2361
S'Gene Knockdown Techniques'
p2362
S'Gene Knockout Techniques'
p2363
S'Drug Discovery'
p2364
S'Lot Quality Assurance Sampling'
p2365
S'Nuclear Power Plants'
p2366
S'Drug Chronotherapy'
p2367
S'Gene Knock-In Techniques'
p2368
S'Magnetic Field Therapy'
p2369
tp2370
.